
LM35_ADC.elf:     file format elf32-avr

Sections:
Idx Name          Size      VMA       LMA       File off  Algn
  0 .text         0000270c  00000000  00000000  00000094  2**1
                  CONTENTS, ALLOC, LOAD, READONLY, CODE
  1 .data         00000020  00800060  0000270c  000027a0  2**0
                  CONTENTS, ALLOC, LOAD, DATA
  2 .bss          00000016  00800080  00800080  000027c0  2**0
                  ALLOC
  3 .stab         00002c10  00000000  00000000  000027c0  2**2
                  CONTENTS, READONLY, DEBUGGING
  4 .stabstr      00002041  00000000  00000000  000053d0  2**0
                  CONTENTS, READONLY, DEBUGGING
  5 .debug_aranges 00000160  00000000  00000000  00007411  2**0
                  CONTENTS, READONLY, DEBUGGING
  6 .debug_pubnames 0000018f  00000000  00000000  00007571  2**0
                  CONTENTS, READONLY, DEBUGGING
  7 .debug_info   00002045  00000000  00000000  00007700  2**0
                  CONTENTS, READONLY, DEBUGGING
  8 .debug_abbrev 00001101  00000000  00000000  00009745  2**0
                  CONTENTS, READONLY, DEBUGGING
  9 .debug_line   00000f82  00000000  00000000  0000a846  2**0
                  CONTENTS, READONLY, DEBUGGING
 10 .debug_frame  00000180  00000000  00000000  0000b7c8  2**2
                  CONTENTS, READONLY, DEBUGGING
 11 .debug_str    000002c2  00000000  00000000  0000b948  2**0
                  CONTENTS, READONLY, DEBUGGING
 12 .debug_loc    0000088e  00000000  00000000  0000bc0a  2**0
                  CONTENTS, READONLY, DEBUGGING
 13 .debug_ranges 00000050  00000000  00000000  0000c498  2**0
                  CONTENTS, READONLY, DEBUGGING

Disassembly of section .text:

00000000 <__vectors>:
       0:	0c 94 2a 00 	jmp	0x54	; 0x54 <__ctors_end>
       4:	0c 94 47 00 	jmp	0x8e	; 0x8e <__bad_interrupt>
       8:	0c 94 47 00 	jmp	0x8e	; 0x8e <__bad_interrupt>
       c:	0c 94 47 00 	jmp	0x8e	; 0x8e <__bad_interrupt>
      10:	0c 94 47 00 	jmp	0x8e	; 0x8e <__bad_interrupt>
      14:	0c 94 47 00 	jmp	0x8e	; 0x8e <__bad_interrupt>
      18:	0c 94 47 00 	jmp	0x8e	; 0x8e <__bad_interrupt>
      1c:	0c 94 47 00 	jmp	0x8e	; 0x8e <__bad_interrupt>
      20:	0c 94 47 00 	jmp	0x8e	; 0x8e <__bad_interrupt>
      24:	0c 94 47 00 	jmp	0x8e	; 0x8e <__bad_interrupt>
      28:	0c 94 47 00 	jmp	0x8e	; 0x8e <__bad_interrupt>
      2c:	0c 94 47 00 	jmp	0x8e	; 0x8e <__bad_interrupt>
      30:	0c 94 47 00 	jmp	0x8e	; 0x8e <__bad_interrupt>
      34:	0c 94 47 00 	jmp	0x8e	; 0x8e <__bad_interrupt>
      38:	0c 94 47 00 	jmp	0x8e	; 0x8e <__bad_interrupt>
      3c:	0c 94 47 00 	jmp	0x8e	; 0x8e <__bad_interrupt>
      40:	0c 94 47 00 	jmp	0x8e	; 0x8e <__bad_interrupt>
      44:	0c 94 47 00 	jmp	0x8e	; 0x8e <__bad_interrupt>
      48:	0c 94 47 00 	jmp	0x8e	; 0x8e <__bad_interrupt>
      4c:	0c 94 47 00 	jmp	0x8e	; 0x8e <__bad_interrupt>
      50:	0c 94 47 00 	jmp	0x8e	; 0x8e <__bad_interrupt>

00000054 <__ctors_end>:
      54:	11 24       	eor	r1, r1
      56:	1f be       	out	0x3f, r1	; 63
      58:	cf e5       	ldi	r28, 0x5F	; 95
      5a:	d8 e0       	ldi	r29, 0x08	; 8
      5c:	de bf       	out	0x3e, r29	; 62
      5e:	cd bf       	out	0x3d, r28	; 61

00000060 <__do_copy_data>:
      60:	10 e0       	ldi	r17, 0x00	; 0
      62:	a0 e6       	ldi	r26, 0x60	; 96
      64:	b0 e0       	ldi	r27, 0x00	; 0
      66:	ec e0       	ldi	r30, 0x0C	; 12
      68:	f7 e2       	ldi	r31, 0x27	; 39
      6a:	02 c0       	rjmp	.+4      	; 0x70 <.do_copy_data_start>

0000006c <.do_copy_data_loop>:
      6c:	05 90       	lpm	r0, Z+
      6e:	0d 92       	st	X+, r0

00000070 <.do_copy_data_start>:
      70:	a0 38       	cpi	r26, 0x80	; 128
      72:	b1 07       	cpc	r27, r17
      74:	d9 f7       	brne	.-10     	; 0x6c <.do_copy_data_loop>

00000076 <__do_clear_bss>:
      76:	10 e0       	ldi	r17, 0x00	; 0
      78:	a0 e8       	ldi	r26, 0x80	; 128
      7a:	b0 e0       	ldi	r27, 0x00	; 0
      7c:	01 c0       	rjmp	.+2      	; 0x80 <.do_clear_bss_start>

0000007e <.do_clear_bss_loop>:
      7e:	1d 92       	st	X+, r1

00000080 <.do_clear_bss_start>:
      80:	a6 39       	cpi	r26, 0x96	; 150
      82:	b1 07       	cpc	r27, r17
      84:	e1 f7       	brne	.-8      	; 0x7e <.do_clear_bss_loop>
      86:	0e 94 07 13 	call	0x260e	; 0x260e <main>
      8a:	0c 94 84 13 	jmp	0x2708	; 0x2708 <_exit>

0000008e <__bad_interrupt>:
      8e:	0c 94 00 00 	jmp	0	; 0x0 <__vectors>

00000092 <__fixunssfsi>:
      92:	ef 92       	push	r14
      94:	ff 92       	push	r15
      96:	0f 93       	push	r16
      98:	1f 93       	push	r17
      9a:	7b 01       	movw	r14, r22
      9c:	8c 01       	movw	r16, r24
      9e:	20 e0       	ldi	r18, 0x00	; 0
      a0:	30 e0       	ldi	r19, 0x00	; 0
      a2:	40 e0       	ldi	r20, 0x00	; 0
      a4:	5f e4       	ldi	r21, 0x4F	; 79
      a6:	0e 94 f5 03 	call	0x7ea	; 0x7ea <__gesf2>
      aa:	88 23       	and	r24, r24
      ac:	8c f0       	brlt	.+34     	; 0xd0 <__fixunssfsi+0x3e>
      ae:	c8 01       	movw	r24, r16
      b0:	b7 01       	movw	r22, r14
      b2:	20 e0       	ldi	r18, 0x00	; 0
      b4:	30 e0       	ldi	r19, 0x00	; 0
      b6:	40 e0       	ldi	r20, 0x00	; 0
      b8:	5f e4       	ldi	r21, 0x4F	; 79
      ba:	0e 94 c1 01 	call	0x382	; 0x382 <__subsf3>
      be:	0e 94 55 04 	call	0x8aa	; 0x8aa <__fixsfsi>
      c2:	9b 01       	movw	r18, r22
      c4:	ac 01       	movw	r20, r24
      c6:	20 50       	subi	r18, 0x00	; 0
      c8:	30 40       	sbci	r19, 0x00	; 0
      ca:	40 40       	sbci	r20, 0x00	; 0
      cc:	50 48       	sbci	r21, 0x80	; 128
      ce:	06 c0       	rjmp	.+12     	; 0xdc <__fixunssfsi+0x4a>
      d0:	c8 01       	movw	r24, r16
      d2:	b7 01       	movw	r22, r14
      d4:	0e 94 55 04 	call	0x8aa	; 0x8aa <__fixsfsi>
      d8:	9b 01       	movw	r18, r22
      da:	ac 01       	movw	r20, r24
      dc:	b9 01       	movw	r22, r18
      de:	ca 01       	movw	r24, r20
      e0:	1f 91       	pop	r17
      e2:	0f 91       	pop	r16
      e4:	ff 90       	pop	r15
      e6:	ef 90       	pop	r14
      e8:	08 95       	ret

000000ea <_fpadd_parts>:
      ea:	a0 e0       	ldi	r26, 0x00	; 0
      ec:	b0 e0       	ldi	r27, 0x00	; 0
      ee:	eb e7       	ldi	r30, 0x7B	; 123
      f0:	f0 e0       	ldi	r31, 0x00	; 0
      f2:	0c 94 4d 13 	jmp	0x269a	; 0x269a <__prologue_saves__>
      f6:	dc 01       	movw	r26, r24
      f8:	2b 01       	movw	r4, r22
      fa:	fa 01       	movw	r30, r20
      fc:	9c 91       	ld	r25, X
      fe:	92 30       	cpi	r25, 0x02	; 2
     100:	08 f4       	brcc	.+2      	; 0x104 <_fpadd_parts+0x1a>
     102:	39 c1       	rjmp	.+626    	; 0x376 <_fpadd_parts+0x28c>
     104:	eb 01       	movw	r28, r22
     106:	88 81       	ld	r24, Y
     108:	82 30       	cpi	r24, 0x02	; 2
     10a:	08 f4       	brcc	.+2      	; 0x10e <_fpadd_parts+0x24>
     10c:	33 c1       	rjmp	.+614    	; 0x374 <_fpadd_parts+0x28a>
     10e:	94 30       	cpi	r25, 0x04	; 4
     110:	69 f4       	brne	.+26     	; 0x12c <_fpadd_parts+0x42>
     112:	84 30       	cpi	r24, 0x04	; 4
     114:	09 f0       	breq	.+2      	; 0x118 <_fpadd_parts+0x2e>
     116:	2f c1       	rjmp	.+606    	; 0x376 <_fpadd_parts+0x28c>
     118:	11 96       	adiw	r26, 0x01	; 1
     11a:	9c 91       	ld	r25, X
     11c:	11 97       	sbiw	r26, 0x01	; 1
     11e:	89 81       	ldd	r24, Y+1	; 0x01
     120:	98 17       	cp	r25, r24
     122:	09 f4       	brne	.+2      	; 0x126 <_fpadd_parts+0x3c>
     124:	28 c1       	rjmp	.+592    	; 0x376 <_fpadd_parts+0x28c>
     126:	a0 e6       	ldi	r26, 0x60	; 96
     128:	b0 e0       	ldi	r27, 0x00	; 0
     12a:	25 c1       	rjmp	.+586    	; 0x376 <_fpadd_parts+0x28c>
     12c:	84 30       	cpi	r24, 0x04	; 4
     12e:	09 f4       	brne	.+2      	; 0x132 <_fpadd_parts+0x48>
     130:	21 c1       	rjmp	.+578    	; 0x374 <_fpadd_parts+0x28a>
     132:	82 30       	cpi	r24, 0x02	; 2
     134:	a9 f4       	brne	.+42     	; 0x160 <_fpadd_parts+0x76>
     136:	92 30       	cpi	r25, 0x02	; 2
     138:	09 f0       	breq	.+2      	; 0x13c <_fpadd_parts+0x52>
     13a:	1d c1       	rjmp	.+570    	; 0x376 <_fpadd_parts+0x28c>
     13c:	9a 01       	movw	r18, r20
     13e:	ad 01       	movw	r20, r26
     140:	88 e0       	ldi	r24, 0x08	; 8
     142:	ea 01       	movw	r28, r20
     144:	09 90       	ld	r0, Y+
     146:	ae 01       	movw	r20, r28
     148:	e9 01       	movw	r28, r18
     14a:	09 92       	st	Y+, r0
     14c:	9e 01       	movw	r18, r28
     14e:	81 50       	subi	r24, 0x01	; 1
     150:	c1 f7       	brne	.-16     	; 0x142 <_fpadd_parts+0x58>
     152:	e2 01       	movw	r28, r4
     154:	89 81       	ldd	r24, Y+1	; 0x01
     156:	11 96       	adiw	r26, 0x01	; 1
     158:	9c 91       	ld	r25, X
     15a:	89 23       	and	r24, r25
     15c:	81 83       	std	Z+1, r24	; 0x01
     15e:	08 c1       	rjmp	.+528    	; 0x370 <_fpadd_parts+0x286>
     160:	92 30       	cpi	r25, 0x02	; 2
     162:	09 f4       	brne	.+2      	; 0x166 <_fpadd_parts+0x7c>
     164:	07 c1       	rjmp	.+526    	; 0x374 <_fpadd_parts+0x28a>
     166:	12 96       	adiw	r26, 0x02	; 2
     168:	2d 90       	ld	r2, X+
     16a:	3c 90       	ld	r3, X
     16c:	13 97       	sbiw	r26, 0x03	; 3
     16e:	eb 01       	movw	r28, r22
     170:	8a 81       	ldd	r24, Y+2	; 0x02
     172:	9b 81       	ldd	r25, Y+3	; 0x03
     174:	14 96       	adiw	r26, 0x04	; 4
     176:	ad 90       	ld	r10, X+
     178:	bd 90       	ld	r11, X+
     17a:	cd 90       	ld	r12, X+
     17c:	dc 90       	ld	r13, X
     17e:	17 97       	sbiw	r26, 0x07	; 7
     180:	ec 80       	ldd	r14, Y+4	; 0x04
     182:	fd 80       	ldd	r15, Y+5	; 0x05
     184:	0e 81       	ldd	r16, Y+6	; 0x06
     186:	1f 81       	ldd	r17, Y+7	; 0x07
     188:	91 01       	movw	r18, r2
     18a:	28 1b       	sub	r18, r24
     18c:	39 0b       	sbc	r19, r25
     18e:	b9 01       	movw	r22, r18
     190:	37 ff       	sbrs	r19, 7
     192:	04 c0       	rjmp	.+8      	; 0x19c <_fpadd_parts+0xb2>
     194:	66 27       	eor	r22, r22
     196:	77 27       	eor	r23, r23
     198:	62 1b       	sub	r22, r18
     19a:	73 0b       	sbc	r23, r19
     19c:	60 32       	cpi	r22, 0x20	; 32
     19e:	71 05       	cpc	r23, r1
     1a0:	0c f0       	brlt	.+2      	; 0x1a4 <_fpadd_parts+0xba>
     1a2:	61 c0       	rjmp	.+194    	; 0x266 <_fpadd_parts+0x17c>
     1a4:	12 16       	cp	r1, r18
     1a6:	13 06       	cpc	r1, r19
     1a8:	6c f5       	brge	.+90     	; 0x204 <_fpadd_parts+0x11a>
     1aa:	37 01       	movw	r6, r14
     1ac:	48 01       	movw	r8, r16
     1ae:	06 2e       	mov	r0, r22
     1b0:	04 c0       	rjmp	.+8      	; 0x1ba <_fpadd_parts+0xd0>
     1b2:	96 94       	lsr	r9
     1b4:	87 94       	ror	r8
     1b6:	77 94       	ror	r7
     1b8:	67 94       	ror	r6
     1ba:	0a 94       	dec	r0
     1bc:	d2 f7       	brpl	.-12     	; 0x1b2 <_fpadd_parts+0xc8>
     1be:	21 e0       	ldi	r18, 0x01	; 1
     1c0:	30 e0       	ldi	r19, 0x00	; 0
     1c2:	40 e0       	ldi	r20, 0x00	; 0
     1c4:	50 e0       	ldi	r21, 0x00	; 0
     1c6:	04 c0       	rjmp	.+8      	; 0x1d0 <_fpadd_parts+0xe6>
     1c8:	22 0f       	add	r18, r18
     1ca:	33 1f       	adc	r19, r19
     1cc:	44 1f       	adc	r20, r20
     1ce:	55 1f       	adc	r21, r21
     1d0:	6a 95       	dec	r22
     1d2:	d2 f7       	brpl	.-12     	; 0x1c8 <_fpadd_parts+0xde>
     1d4:	21 50       	subi	r18, 0x01	; 1
     1d6:	30 40       	sbci	r19, 0x00	; 0
     1d8:	40 40       	sbci	r20, 0x00	; 0
     1da:	50 40       	sbci	r21, 0x00	; 0
     1dc:	2e 21       	and	r18, r14
     1de:	3f 21       	and	r19, r15
     1e0:	40 23       	and	r20, r16
     1e2:	51 23       	and	r21, r17
     1e4:	21 15       	cp	r18, r1
     1e6:	31 05       	cpc	r19, r1
     1e8:	41 05       	cpc	r20, r1
     1ea:	51 05       	cpc	r21, r1
     1ec:	21 f0       	breq	.+8      	; 0x1f6 <_fpadd_parts+0x10c>
     1ee:	21 e0       	ldi	r18, 0x01	; 1
     1f0:	30 e0       	ldi	r19, 0x00	; 0
     1f2:	40 e0       	ldi	r20, 0x00	; 0
     1f4:	50 e0       	ldi	r21, 0x00	; 0
     1f6:	79 01       	movw	r14, r18
     1f8:	8a 01       	movw	r16, r20
     1fa:	e6 28       	or	r14, r6
     1fc:	f7 28       	or	r15, r7
     1fe:	08 29       	or	r16, r8
     200:	19 29       	or	r17, r9
     202:	3c c0       	rjmp	.+120    	; 0x27c <_fpadd_parts+0x192>
     204:	23 2b       	or	r18, r19
     206:	d1 f1       	breq	.+116    	; 0x27c <_fpadd_parts+0x192>
     208:	26 0e       	add	r2, r22
     20a:	37 1e       	adc	r3, r23
     20c:	35 01       	movw	r6, r10
     20e:	46 01       	movw	r8, r12
     210:	06 2e       	mov	r0, r22
     212:	04 c0       	rjmp	.+8      	; 0x21c <_fpadd_parts+0x132>
     214:	96 94       	lsr	r9
     216:	87 94       	ror	r8
     218:	77 94       	ror	r7
     21a:	67 94       	ror	r6
     21c:	0a 94       	dec	r0
     21e:	d2 f7       	brpl	.-12     	; 0x214 <_fpadd_parts+0x12a>
     220:	21 e0       	ldi	r18, 0x01	; 1
     222:	30 e0       	ldi	r19, 0x00	; 0
     224:	40 e0       	ldi	r20, 0x00	; 0
     226:	50 e0       	ldi	r21, 0x00	; 0
     228:	04 c0       	rjmp	.+8      	; 0x232 <_fpadd_parts+0x148>
     22a:	22 0f       	add	r18, r18
     22c:	33 1f       	adc	r19, r19
     22e:	44 1f       	adc	r20, r20
     230:	55 1f       	adc	r21, r21
     232:	6a 95       	dec	r22
     234:	d2 f7       	brpl	.-12     	; 0x22a <_fpadd_parts+0x140>
     236:	21 50       	subi	r18, 0x01	; 1
     238:	30 40       	sbci	r19, 0x00	; 0
     23a:	40 40       	sbci	r20, 0x00	; 0
     23c:	50 40       	sbci	r21, 0x00	; 0
     23e:	2a 21       	and	r18, r10
     240:	3b 21       	and	r19, r11
     242:	4c 21       	and	r20, r12
     244:	5d 21       	and	r21, r13
     246:	21 15       	cp	r18, r1
     248:	31 05       	cpc	r19, r1
     24a:	41 05       	cpc	r20, r1
     24c:	51 05       	cpc	r21, r1
     24e:	21 f0       	breq	.+8      	; 0x258 <_fpadd_parts+0x16e>
     250:	21 e0       	ldi	r18, 0x01	; 1
     252:	30 e0       	ldi	r19, 0x00	; 0
     254:	40 e0       	ldi	r20, 0x00	; 0
     256:	50 e0       	ldi	r21, 0x00	; 0
     258:	59 01       	movw	r10, r18
     25a:	6a 01       	movw	r12, r20
     25c:	a6 28       	or	r10, r6
     25e:	b7 28       	or	r11, r7
     260:	c8 28       	or	r12, r8
     262:	d9 28       	or	r13, r9
     264:	0b c0       	rjmp	.+22     	; 0x27c <_fpadd_parts+0x192>
     266:	82 15       	cp	r24, r2
     268:	93 05       	cpc	r25, r3
     26a:	2c f0       	brlt	.+10     	; 0x276 <_fpadd_parts+0x18c>
     26c:	1c 01       	movw	r2, r24
     26e:	aa 24       	eor	r10, r10
     270:	bb 24       	eor	r11, r11
     272:	65 01       	movw	r12, r10
     274:	03 c0       	rjmp	.+6      	; 0x27c <_fpadd_parts+0x192>
     276:	ee 24       	eor	r14, r14
     278:	ff 24       	eor	r15, r15
     27a:	87 01       	movw	r16, r14
     27c:	11 96       	adiw	r26, 0x01	; 1
     27e:	9c 91       	ld	r25, X
     280:	d2 01       	movw	r26, r4
     282:	11 96       	adiw	r26, 0x01	; 1
     284:	8c 91       	ld	r24, X
     286:	98 17       	cp	r25, r24
     288:	09 f4       	brne	.+2      	; 0x28c <_fpadd_parts+0x1a2>
     28a:	45 c0       	rjmp	.+138    	; 0x316 <_fpadd_parts+0x22c>
     28c:	99 23       	and	r25, r25
     28e:	39 f0       	breq	.+14     	; 0x29e <_fpadd_parts+0x1b4>
     290:	a8 01       	movw	r20, r16
     292:	97 01       	movw	r18, r14
     294:	2a 19       	sub	r18, r10
     296:	3b 09       	sbc	r19, r11
     298:	4c 09       	sbc	r20, r12
     29a:	5d 09       	sbc	r21, r13
     29c:	06 c0       	rjmp	.+12     	; 0x2aa <_fpadd_parts+0x1c0>
     29e:	a6 01       	movw	r20, r12
     2a0:	95 01       	movw	r18, r10
     2a2:	2e 19       	sub	r18, r14
     2a4:	3f 09       	sbc	r19, r15
     2a6:	40 0b       	sbc	r20, r16
     2a8:	51 0b       	sbc	r21, r17
     2aa:	57 fd       	sbrc	r21, 7
     2ac:	08 c0       	rjmp	.+16     	; 0x2be <_fpadd_parts+0x1d4>
     2ae:	11 82       	std	Z+1, r1	; 0x01
     2b0:	33 82       	std	Z+3, r3	; 0x03
     2b2:	22 82       	std	Z+2, r2	; 0x02
     2b4:	24 83       	std	Z+4, r18	; 0x04
     2b6:	35 83       	std	Z+5, r19	; 0x05
     2b8:	46 83       	std	Z+6, r20	; 0x06
     2ba:	57 83       	std	Z+7, r21	; 0x07
     2bc:	1d c0       	rjmp	.+58     	; 0x2f8 <_fpadd_parts+0x20e>
     2be:	81 e0       	ldi	r24, 0x01	; 1
     2c0:	81 83       	std	Z+1, r24	; 0x01
     2c2:	33 82       	std	Z+3, r3	; 0x03
     2c4:	22 82       	std	Z+2, r2	; 0x02
     2c6:	88 27       	eor	r24, r24
     2c8:	99 27       	eor	r25, r25
     2ca:	dc 01       	movw	r26, r24
     2cc:	82 1b       	sub	r24, r18
     2ce:	93 0b       	sbc	r25, r19
     2d0:	a4 0b       	sbc	r26, r20
     2d2:	b5 0b       	sbc	r27, r21
     2d4:	84 83       	std	Z+4, r24	; 0x04
     2d6:	95 83       	std	Z+5, r25	; 0x05
     2d8:	a6 83       	std	Z+6, r26	; 0x06
     2da:	b7 83       	std	Z+7, r27	; 0x07
     2dc:	0d c0       	rjmp	.+26     	; 0x2f8 <_fpadd_parts+0x20e>
     2de:	22 0f       	add	r18, r18
     2e0:	33 1f       	adc	r19, r19
     2e2:	44 1f       	adc	r20, r20
     2e4:	55 1f       	adc	r21, r21
     2e6:	24 83       	std	Z+4, r18	; 0x04
     2e8:	35 83       	std	Z+5, r19	; 0x05
     2ea:	46 83       	std	Z+6, r20	; 0x06
     2ec:	57 83       	std	Z+7, r21	; 0x07
     2ee:	82 81       	ldd	r24, Z+2	; 0x02
     2f0:	93 81       	ldd	r25, Z+3	; 0x03
     2f2:	01 97       	sbiw	r24, 0x01	; 1
     2f4:	93 83       	std	Z+3, r25	; 0x03
     2f6:	82 83       	std	Z+2, r24	; 0x02
     2f8:	24 81       	ldd	r18, Z+4	; 0x04
     2fa:	35 81       	ldd	r19, Z+5	; 0x05
     2fc:	46 81       	ldd	r20, Z+6	; 0x06
     2fe:	57 81       	ldd	r21, Z+7	; 0x07
     300:	da 01       	movw	r26, r20
     302:	c9 01       	movw	r24, r18
     304:	01 97       	sbiw	r24, 0x01	; 1
     306:	a1 09       	sbc	r26, r1
     308:	b1 09       	sbc	r27, r1
     30a:	8f 5f       	subi	r24, 0xFF	; 255
     30c:	9f 4f       	sbci	r25, 0xFF	; 255
     30e:	af 4f       	sbci	r26, 0xFF	; 255
     310:	bf 43       	sbci	r27, 0x3F	; 63
     312:	28 f3       	brcs	.-54     	; 0x2de <_fpadd_parts+0x1f4>
     314:	0b c0       	rjmp	.+22     	; 0x32c <_fpadd_parts+0x242>
     316:	91 83       	std	Z+1, r25	; 0x01
     318:	33 82       	std	Z+3, r3	; 0x03
     31a:	22 82       	std	Z+2, r2	; 0x02
     31c:	ea 0c       	add	r14, r10
     31e:	fb 1c       	adc	r15, r11
     320:	0c 1d       	adc	r16, r12
     322:	1d 1d       	adc	r17, r13
     324:	e4 82       	std	Z+4, r14	; 0x04
     326:	f5 82       	std	Z+5, r15	; 0x05
     328:	06 83       	std	Z+6, r16	; 0x06
     32a:	17 83       	std	Z+7, r17	; 0x07
     32c:	83 e0       	ldi	r24, 0x03	; 3
     32e:	80 83       	st	Z, r24
     330:	24 81       	ldd	r18, Z+4	; 0x04
     332:	35 81       	ldd	r19, Z+5	; 0x05
     334:	46 81       	ldd	r20, Z+6	; 0x06
     336:	57 81       	ldd	r21, Z+7	; 0x07
     338:	57 ff       	sbrs	r21, 7
     33a:	1a c0       	rjmp	.+52     	; 0x370 <_fpadd_parts+0x286>
     33c:	c9 01       	movw	r24, r18
     33e:	aa 27       	eor	r26, r26
     340:	97 fd       	sbrc	r25, 7
     342:	a0 95       	com	r26
     344:	ba 2f       	mov	r27, r26
     346:	81 70       	andi	r24, 0x01	; 1
     348:	90 70       	andi	r25, 0x00	; 0
     34a:	a0 70       	andi	r26, 0x00	; 0
     34c:	b0 70       	andi	r27, 0x00	; 0
     34e:	56 95       	lsr	r21
     350:	47 95       	ror	r20
     352:	37 95       	ror	r19
     354:	27 95       	ror	r18
     356:	82 2b       	or	r24, r18
     358:	93 2b       	or	r25, r19
     35a:	a4 2b       	or	r26, r20
     35c:	b5 2b       	or	r27, r21
     35e:	84 83       	std	Z+4, r24	; 0x04
     360:	95 83       	std	Z+5, r25	; 0x05
     362:	a6 83       	std	Z+6, r26	; 0x06
     364:	b7 83       	std	Z+7, r27	; 0x07
     366:	82 81       	ldd	r24, Z+2	; 0x02
     368:	93 81       	ldd	r25, Z+3	; 0x03
     36a:	01 96       	adiw	r24, 0x01	; 1
     36c:	93 83       	std	Z+3, r25	; 0x03
     36e:	82 83       	std	Z+2, r24	; 0x02
     370:	df 01       	movw	r26, r30
     372:	01 c0       	rjmp	.+2      	; 0x376 <_fpadd_parts+0x28c>
     374:	d2 01       	movw	r26, r4
     376:	cd 01       	movw	r24, r26
     378:	cd b7       	in	r28, 0x3d	; 61
     37a:	de b7       	in	r29, 0x3e	; 62
     37c:	e2 e1       	ldi	r30, 0x12	; 18
     37e:	0c 94 69 13 	jmp	0x26d2	; 0x26d2 <__epilogue_restores__>

00000382 <__subsf3>:
     382:	a0 e2       	ldi	r26, 0x20	; 32
     384:	b0 e0       	ldi	r27, 0x00	; 0
     386:	e7 ec       	ldi	r30, 0xC7	; 199
     388:	f1 e0       	ldi	r31, 0x01	; 1
     38a:	0c 94 59 13 	jmp	0x26b2	; 0x26b2 <__prologue_saves__+0x18>
     38e:	69 83       	std	Y+1, r22	; 0x01
     390:	7a 83       	std	Y+2, r23	; 0x02
     392:	8b 83       	std	Y+3, r24	; 0x03
     394:	9c 83       	std	Y+4, r25	; 0x04
     396:	2d 83       	std	Y+5, r18	; 0x05
     398:	3e 83       	std	Y+6, r19	; 0x06
     39a:	4f 83       	std	Y+7, r20	; 0x07
     39c:	58 87       	std	Y+8, r21	; 0x08
     39e:	e9 e0       	ldi	r30, 0x09	; 9
     3a0:	ee 2e       	mov	r14, r30
     3a2:	f1 2c       	mov	r15, r1
     3a4:	ec 0e       	add	r14, r28
     3a6:	fd 1e       	adc	r15, r29
     3a8:	ce 01       	movw	r24, r28
     3aa:	01 96       	adiw	r24, 0x01	; 1
     3ac:	b7 01       	movw	r22, r14
     3ae:	0e 94 7e 05 	call	0xafc	; 0xafc <__unpack_f>
     3b2:	8e 01       	movw	r16, r28
     3b4:	0f 5e       	subi	r16, 0xEF	; 239
     3b6:	1f 4f       	sbci	r17, 0xFF	; 255
     3b8:	ce 01       	movw	r24, r28
     3ba:	05 96       	adiw	r24, 0x05	; 5
     3bc:	b8 01       	movw	r22, r16
     3be:	0e 94 7e 05 	call	0xafc	; 0xafc <__unpack_f>
     3c2:	8a 89       	ldd	r24, Y+18	; 0x12
     3c4:	91 e0       	ldi	r25, 0x01	; 1
     3c6:	89 27       	eor	r24, r25
     3c8:	8a 8b       	std	Y+18, r24	; 0x12
     3ca:	c7 01       	movw	r24, r14
     3cc:	b8 01       	movw	r22, r16
     3ce:	ae 01       	movw	r20, r28
     3d0:	47 5e       	subi	r20, 0xE7	; 231
     3d2:	5f 4f       	sbci	r21, 0xFF	; 255
     3d4:	0e 94 75 00 	call	0xea	; 0xea <_fpadd_parts>
     3d8:	0e 94 a9 04 	call	0x952	; 0x952 <__pack_f>
     3dc:	a0 96       	adiw	r28, 0x20	; 32
     3de:	e6 e0       	ldi	r30, 0x06	; 6
     3e0:	0c 94 75 13 	jmp	0x26ea	; 0x26ea <__epilogue_restores__+0x18>

000003e4 <__addsf3>:
     3e4:	a0 e2       	ldi	r26, 0x20	; 32
     3e6:	b0 e0       	ldi	r27, 0x00	; 0
     3e8:	e8 ef       	ldi	r30, 0xF8	; 248
     3ea:	f1 e0       	ldi	r31, 0x01	; 1
     3ec:	0c 94 59 13 	jmp	0x26b2	; 0x26b2 <__prologue_saves__+0x18>
     3f0:	69 83       	std	Y+1, r22	; 0x01
     3f2:	7a 83       	std	Y+2, r23	; 0x02
     3f4:	8b 83       	std	Y+3, r24	; 0x03
     3f6:	9c 83       	std	Y+4, r25	; 0x04
     3f8:	2d 83       	std	Y+5, r18	; 0x05
     3fa:	3e 83       	std	Y+6, r19	; 0x06
     3fc:	4f 83       	std	Y+7, r20	; 0x07
     3fe:	58 87       	std	Y+8, r21	; 0x08
     400:	f9 e0       	ldi	r31, 0x09	; 9
     402:	ef 2e       	mov	r14, r31
     404:	f1 2c       	mov	r15, r1
     406:	ec 0e       	add	r14, r28
     408:	fd 1e       	adc	r15, r29
     40a:	ce 01       	movw	r24, r28
     40c:	01 96       	adiw	r24, 0x01	; 1
     40e:	b7 01       	movw	r22, r14
     410:	0e 94 7e 05 	call	0xafc	; 0xafc <__unpack_f>
     414:	8e 01       	movw	r16, r28
     416:	0f 5e       	subi	r16, 0xEF	; 239
     418:	1f 4f       	sbci	r17, 0xFF	; 255
     41a:	ce 01       	movw	r24, r28
     41c:	05 96       	adiw	r24, 0x05	; 5
     41e:	b8 01       	movw	r22, r16
     420:	0e 94 7e 05 	call	0xafc	; 0xafc <__unpack_f>
     424:	c7 01       	movw	r24, r14
     426:	b8 01       	movw	r22, r16
     428:	ae 01       	movw	r20, r28
     42a:	47 5e       	subi	r20, 0xE7	; 231
     42c:	5f 4f       	sbci	r21, 0xFF	; 255
     42e:	0e 94 75 00 	call	0xea	; 0xea <_fpadd_parts>
     432:	0e 94 a9 04 	call	0x952	; 0x952 <__pack_f>
     436:	a0 96       	adiw	r28, 0x20	; 32
     438:	e6 e0       	ldi	r30, 0x06	; 6
     43a:	0c 94 75 13 	jmp	0x26ea	; 0x26ea <__epilogue_restores__+0x18>

0000043e <__mulsf3>:
     43e:	a0 e2       	ldi	r26, 0x20	; 32
     440:	b0 e0       	ldi	r27, 0x00	; 0
     442:	e5 e2       	ldi	r30, 0x25	; 37
     444:	f2 e0       	ldi	r31, 0x02	; 2
     446:	0c 94 4d 13 	jmp	0x269a	; 0x269a <__prologue_saves__>
     44a:	69 83       	std	Y+1, r22	; 0x01
     44c:	7a 83       	std	Y+2, r23	; 0x02
     44e:	8b 83       	std	Y+3, r24	; 0x03
     450:	9c 83       	std	Y+4, r25	; 0x04
     452:	2d 83       	std	Y+5, r18	; 0x05
     454:	3e 83       	std	Y+6, r19	; 0x06
     456:	4f 83       	std	Y+7, r20	; 0x07
     458:	58 87       	std	Y+8, r21	; 0x08
     45a:	ce 01       	movw	r24, r28
     45c:	01 96       	adiw	r24, 0x01	; 1
     45e:	be 01       	movw	r22, r28
     460:	67 5f       	subi	r22, 0xF7	; 247
     462:	7f 4f       	sbci	r23, 0xFF	; 255
     464:	0e 94 7e 05 	call	0xafc	; 0xafc <__unpack_f>
     468:	ce 01       	movw	r24, r28
     46a:	05 96       	adiw	r24, 0x05	; 5
     46c:	be 01       	movw	r22, r28
     46e:	6f 5e       	subi	r22, 0xEF	; 239
     470:	7f 4f       	sbci	r23, 0xFF	; 255
     472:	0e 94 7e 05 	call	0xafc	; 0xafc <__unpack_f>
     476:	99 85       	ldd	r25, Y+9	; 0x09
     478:	92 30       	cpi	r25, 0x02	; 2
     47a:	88 f0       	brcs	.+34     	; 0x49e <__mulsf3+0x60>
     47c:	89 89       	ldd	r24, Y+17	; 0x11
     47e:	82 30       	cpi	r24, 0x02	; 2
     480:	c8 f0       	brcs	.+50     	; 0x4b4 <__mulsf3+0x76>
     482:	94 30       	cpi	r25, 0x04	; 4
     484:	19 f4       	brne	.+6      	; 0x48c <__mulsf3+0x4e>
     486:	82 30       	cpi	r24, 0x02	; 2
     488:	51 f4       	brne	.+20     	; 0x49e <__mulsf3+0x60>
     48a:	04 c0       	rjmp	.+8      	; 0x494 <__mulsf3+0x56>
     48c:	84 30       	cpi	r24, 0x04	; 4
     48e:	29 f4       	brne	.+10     	; 0x49a <__mulsf3+0x5c>
     490:	92 30       	cpi	r25, 0x02	; 2
     492:	81 f4       	brne	.+32     	; 0x4b4 <__mulsf3+0x76>
     494:	80 e6       	ldi	r24, 0x60	; 96
     496:	90 e0       	ldi	r25, 0x00	; 0
     498:	c6 c0       	rjmp	.+396    	; 0x626 <__mulsf3+0x1e8>
     49a:	92 30       	cpi	r25, 0x02	; 2
     49c:	49 f4       	brne	.+18     	; 0x4b0 <__mulsf3+0x72>
     49e:	20 e0       	ldi	r18, 0x00	; 0
     4a0:	9a 85       	ldd	r25, Y+10	; 0x0a
     4a2:	8a 89       	ldd	r24, Y+18	; 0x12
     4a4:	98 13       	cpse	r25, r24
     4a6:	21 e0       	ldi	r18, 0x01	; 1
     4a8:	2a 87       	std	Y+10, r18	; 0x0a
     4aa:	ce 01       	movw	r24, r28
     4ac:	09 96       	adiw	r24, 0x09	; 9
     4ae:	bb c0       	rjmp	.+374    	; 0x626 <__mulsf3+0x1e8>
     4b0:	82 30       	cpi	r24, 0x02	; 2
     4b2:	49 f4       	brne	.+18     	; 0x4c6 <__mulsf3+0x88>
     4b4:	20 e0       	ldi	r18, 0x00	; 0
     4b6:	9a 85       	ldd	r25, Y+10	; 0x0a
     4b8:	8a 89       	ldd	r24, Y+18	; 0x12
     4ba:	98 13       	cpse	r25, r24
     4bc:	21 e0       	ldi	r18, 0x01	; 1
     4be:	2a 8b       	std	Y+18, r18	; 0x12
     4c0:	ce 01       	movw	r24, r28
     4c2:	41 96       	adiw	r24, 0x11	; 17
     4c4:	b0 c0       	rjmp	.+352    	; 0x626 <__mulsf3+0x1e8>
     4c6:	2d 84       	ldd	r2, Y+13	; 0x0d
     4c8:	3e 84       	ldd	r3, Y+14	; 0x0e
     4ca:	4f 84       	ldd	r4, Y+15	; 0x0f
     4cc:	58 88       	ldd	r5, Y+16	; 0x10
     4ce:	6d 88       	ldd	r6, Y+21	; 0x15
     4d0:	7e 88       	ldd	r7, Y+22	; 0x16
     4d2:	8f 88       	ldd	r8, Y+23	; 0x17
     4d4:	98 8c       	ldd	r9, Y+24	; 0x18
     4d6:	ee 24       	eor	r14, r14
     4d8:	ff 24       	eor	r15, r15
     4da:	87 01       	movw	r16, r14
     4dc:	aa 24       	eor	r10, r10
     4de:	bb 24       	eor	r11, r11
     4e0:	65 01       	movw	r12, r10
     4e2:	40 e0       	ldi	r20, 0x00	; 0
     4e4:	50 e0       	ldi	r21, 0x00	; 0
     4e6:	60 e0       	ldi	r22, 0x00	; 0
     4e8:	70 e0       	ldi	r23, 0x00	; 0
     4ea:	e0 e0       	ldi	r30, 0x00	; 0
     4ec:	f0 e0       	ldi	r31, 0x00	; 0
     4ee:	c1 01       	movw	r24, r2
     4f0:	81 70       	andi	r24, 0x01	; 1
     4f2:	90 70       	andi	r25, 0x00	; 0
     4f4:	89 2b       	or	r24, r25
     4f6:	e9 f0       	breq	.+58     	; 0x532 <__mulsf3+0xf4>
     4f8:	e6 0c       	add	r14, r6
     4fa:	f7 1c       	adc	r15, r7
     4fc:	08 1d       	adc	r16, r8
     4fe:	19 1d       	adc	r17, r9
     500:	9a 01       	movw	r18, r20
     502:	ab 01       	movw	r20, r22
     504:	2a 0d       	add	r18, r10
     506:	3b 1d       	adc	r19, r11
     508:	4c 1d       	adc	r20, r12
     50a:	5d 1d       	adc	r21, r13
     50c:	80 e0       	ldi	r24, 0x00	; 0
     50e:	90 e0       	ldi	r25, 0x00	; 0
     510:	a0 e0       	ldi	r26, 0x00	; 0
     512:	b0 e0       	ldi	r27, 0x00	; 0
     514:	e6 14       	cp	r14, r6
     516:	f7 04       	cpc	r15, r7
     518:	08 05       	cpc	r16, r8
     51a:	19 05       	cpc	r17, r9
     51c:	20 f4       	brcc	.+8      	; 0x526 <__mulsf3+0xe8>
     51e:	81 e0       	ldi	r24, 0x01	; 1
     520:	90 e0       	ldi	r25, 0x00	; 0
     522:	a0 e0       	ldi	r26, 0x00	; 0
     524:	b0 e0       	ldi	r27, 0x00	; 0
     526:	ba 01       	movw	r22, r20
     528:	a9 01       	movw	r20, r18
     52a:	48 0f       	add	r20, r24
     52c:	59 1f       	adc	r21, r25
     52e:	6a 1f       	adc	r22, r26
     530:	7b 1f       	adc	r23, r27
     532:	aa 0c       	add	r10, r10
     534:	bb 1c       	adc	r11, r11
     536:	cc 1c       	adc	r12, r12
     538:	dd 1c       	adc	r13, r13
     53a:	97 fe       	sbrs	r9, 7
     53c:	08 c0       	rjmp	.+16     	; 0x54e <__mulsf3+0x110>
     53e:	81 e0       	ldi	r24, 0x01	; 1
     540:	90 e0       	ldi	r25, 0x00	; 0
     542:	a0 e0       	ldi	r26, 0x00	; 0
     544:	b0 e0       	ldi	r27, 0x00	; 0
     546:	a8 2a       	or	r10, r24
     548:	b9 2a       	or	r11, r25
     54a:	ca 2a       	or	r12, r26
     54c:	db 2a       	or	r13, r27
     54e:	31 96       	adiw	r30, 0x01	; 1
     550:	e0 32       	cpi	r30, 0x20	; 32
     552:	f1 05       	cpc	r31, r1
     554:	49 f0       	breq	.+18     	; 0x568 <__mulsf3+0x12a>
     556:	66 0c       	add	r6, r6
     558:	77 1c       	adc	r7, r7
     55a:	88 1c       	adc	r8, r8
     55c:	99 1c       	adc	r9, r9
     55e:	56 94       	lsr	r5
     560:	47 94       	ror	r4
     562:	37 94       	ror	r3
     564:	27 94       	ror	r2
     566:	c3 cf       	rjmp	.-122    	; 0x4ee <__mulsf3+0xb0>
     568:	fa 85       	ldd	r31, Y+10	; 0x0a
     56a:	ea 89       	ldd	r30, Y+18	; 0x12
     56c:	2b 89       	ldd	r18, Y+19	; 0x13
     56e:	3c 89       	ldd	r19, Y+20	; 0x14
     570:	8b 85       	ldd	r24, Y+11	; 0x0b
     572:	9c 85       	ldd	r25, Y+12	; 0x0c
     574:	28 0f       	add	r18, r24
     576:	39 1f       	adc	r19, r25
     578:	2e 5f       	subi	r18, 0xFE	; 254
     57a:	3f 4f       	sbci	r19, 0xFF	; 255
     57c:	17 c0       	rjmp	.+46     	; 0x5ac <__mulsf3+0x16e>
     57e:	ca 01       	movw	r24, r20
     580:	81 70       	andi	r24, 0x01	; 1
     582:	90 70       	andi	r25, 0x00	; 0
     584:	89 2b       	or	r24, r25
     586:	61 f0       	breq	.+24     	; 0x5a0 <__mulsf3+0x162>
     588:	16 95       	lsr	r17
     58a:	07 95       	ror	r16
     58c:	f7 94       	ror	r15
     58e:	e7 94       	ror	r14
     590:	80 e0       	ldi	r24, 0x00	; 0
     592:	90 e0       	ldi	r25, 0x00	; 0
     594:	a0 e0       	ldi	r26, 0x00	; 0
     596:	b0 e8       	ldi	r27, 0x80	; 128
     598:	e8 2a       	or	r14, r24
     59a:	f9 2a       	or	r15, r25
     59c:	0a 2b       	or	r16, r26
     59e:	1b 2b       	or	r17, r27
     5a0:	76 95       	lsr	r23
     5a2:	67 95       	ror	r22
     5a4:	57 95       	ror	r21
     5a6:	47 95       	ror	r20
     5a8:	2f 5f       	subi	r18, 0xFF	; 255
     5aa:	3f 4f       	sbci	r19, 0xFF	; 255
     5ac:	77 fd       	sbrc	r23, 7
     5ae:	e7 cf       	rjmp	.-50     	; 0x57e <__mulsf3+0x140>
     5b0:	0c c0       	rjmp	.+24     	; 0x5ca <__mulsf3+0x18c>
     5b2:	44 0f       	add	r20, r20
     5b4:	55 1f       	adc	r21, r21
     5b6:	66 1f       	adc	r22, r22
     5b8:	77 1f       	adc	r23, r23
     5ba:	17 fd       	sbrc	r17, 7
     5bc:	41 60       	ori	r20, 0x01	; 1
     5be:	ee 0c       	add	r14, r14
     5c0:	ff 1c       	adc	r15, r15
     5c2:	00 1f       	adc	r16, r16
     5c4:	11 1f       	adc	r17, r17
     5c6:	21 50       	subi	r18, 0x01	; 1
     5c8:	30 40       	sbci	r19, 0x00	; 0
     5ca:	40 30       	cpi	r20, 0x00	; 0
     5cc:	90 e0       	ldi	r25, 0x00	; 0
     5ce:	59 07       	cpc	r21, r25
     5d0:	90 e0       	ldi	r25, 0x00	; 0
     5d2:	69 07       	cpc	r22, r25
     5d4:	90 e4       	ldi	r25, 0x40	; 64
     5d6:	79 07       	cpc	r23, r25
     5d8:	60 f3       	brcs	.-40     	; 0x5b2 <__mulsf3+0x174>
     5da:	2b 8f       	std	Y+27, r18	; 0x1b
     5dc:	3c 8f       	std	Y+28, r19	; 0x1c
     5de:	db 01       	movw	r26, r22
     5e0:	ca 01       	movw	r24, r20
     5e2:	8f 77       	andi	r24, 0x7F	; 127
     5e4:	90 70       	andi	r25, 0x00	; 0
     5e6:	a0 70       	andi	r26, 0x00	; 0
     5e8:	b0 70       	andi	r27, 0x00	; 0
     5ea:	80 34       	cpi	r24, 0x40	; 64
     5ec:	91 05       	cpc	r25, r1
     5ee:	a1 05       	cpc	r26, r1
     5f0:	b1 05       	cpc	r27, r1
     5f2:	61 f4       	brne	.+24     	; 0x60c <__mulsf3+0x1ce>
     5f4:	47 fd       	sbrc	r20, 7
     5f6:	0a c0       	rjmp	.+20     	; 0x60c <__mulsf3+0x1ce>
     5f8:	e1 14       	cp	r14, r1
     5fa:	f1 04       	cpc	r15, r1
     5fc:	01 05       	cpc	r16, r1
     5fe:	11 05       	cpc	r17, r1
     600:	29 f0       	breq	.+10     	; 0x60c <__mulsf3+0x1ce>
     602:	40 5c       	subi	r20, 0xC0	; 192
     604:	5f 4f       	sbci	r21, 0xFF	; 255
     606:	6f 4f       	sbci	r22, 0xFF	; 255
     608:	7f 4f       	sbci	r23, 0xFF	; 255
     60a:	40 78       	andi	r20, 0x80	; 128
     60c:	1a 8e       	std	Y+26, r1	; 0x1a
     60e:	fe 17       	cp	r31, r30
     610:	11 f0       	breq	.+4      	; 0x616 <__mulsf3+0x1d8>
     612:	81 e0       	ldi	r24, 0x01	; 1
     614:	8a 8f       	std	Y+26, r24	; 0x1a
     616:	4d 8f       	std	Y+29, r20	; 0x1d
     618:	5e 8f       	std	Y+30, r21	; 0x1e
     61a:	6f 8f       	std	Y+31, r22	; 0x1f
     61c:	78 a3       	std	Y+32, r23	; 0x20
     61e:	83 e0       	ldi	r24, 0x03	; 3
     620:	89 8f       	std	Y+25, r24	; 0x19
     622:	ce 01       	movw	r24, r28
     624:	49 96       	adiw	r24, 0x19	; 25
     626:	0e 94 a9 04 	call	0x952	; 0x952 <__pack_f>
     62a:	a0 96       	adiw	r28, 0x20	; 32
     62c:	e2 e1       	ldi	r30, 0x12	; 18
     62e:	0c 94 69 13 	jmp	0x26d2	; 0x26d2 <__epilogue_restores__>

00000632 <__divsf3>:
     632:	a8 e1       	ldi	r26, 0x18	; 24
     634:	b0 e0       	ldi	r27, 0x00	; 0
     636:	ef e1       	ldi	r30, 0x1F	; 31
     638:	f3 e0       	ldi	r31, 0x03	; 3
     63a:	0c 94 55 13 	jmp	0x26aa	; 0x26aa <__prologue_saves__+0x10>
     63e:	69 83       	std	Y+1, r22	; 0x01
     640:	7a 83       	std	Y+2, r23	; 0x02
     642:	8b 83       	std	Y+3, r24	; 0x03
     644:	9c 83       	std	Y+4, r25	; 0x04
     646:	2d 83       	std	Y+5, r18	; 0x05
     648:	3e 83       	std	Y+6, r19	; 0x06
     64a:	4f 83       	std	Y+7, r20	; 0x07
     64c:	58 87       	std	Y+8, r21	; 0x08
     64e:	b9 e0       	ldi	r27, 0x09	; 9
     650:	eb 2e       	mov	r14, r27
     652:	f1 2c       	mov	r15, r1
     654:	ec 0e       	add	r14, r28
     656:	fd 1e       	adc	r15, r29
     658:	ce 01       	movw	r24, r28
     65a:	01 96       	adiw	r24, 0x01	; 1
     65c:	b7 01       	movw	r22, r14
     65e:	0e 94 7e 05 	call	0xafc	; 0xafc <__unpack_f>
     662:	8e 01       	movw	r16, r28
     664:	0f 5e       	subi	r16, 0xEF	; 239
     666:	1f 4f       	sbci	r17, 0xFF	; 255
     668:	ce 01       	movw	r24, r28
     66a:	05 96       	adiw	r24, 0x05	; 5
     66c:	b8 01       	movw	r22, r16
     66e:	0e 94 7e 05 	call	0xafc	; 0xafc <__unpack_f>
     672:	29 85       	ldd	r18, Y+9	; 0x09
     674:	22 30       	cpi	r18, 0x02	; 2
     676:	08 f4       	brcc	.+2      	; 0x67a <__divsf3+0x48>
     678:	7e c0       	rjmp	.+252    	; 0x776 <__divsf3+0x144>
     67a:	39 89       	ldd	r19, Y+17	; 0x11
     67c:	32 30       	cpi	r19, 0x02	; 2
     67e:	10 f4       	brcc	.+4      	; 0x684 <__divsf3+0x52>
     680:	b8 01       	movw	r22, r16
     682:	7c c0       	rjmp	.+248    	; 0x77c <__divsf3+0x14a>
     684:	8a 85       	ldd	r24, Y+10	; 0x0a
     686:	9a 89       	ldd	r25, Y+18	; 0x12
     688:	89 27       	eor	r24, r25
     68a:	8a 87       	std	Y+10, r24	; 0x0a
     68c:	24 30       	cpi	r18, 0x04	; 4
     68e:	11 f0       	breq	.+4      	; 0x694 <__divsf3+0x62>
     690:	22 30       	cpi	r18, 0x02	; 2
     692:	31 f4       	brne	.+12     	; 0x6a0 <__divsf3+0x6e>
     694:	23 17       	cp	r18, r19
     696:	09 f0       	breq	.+2      	; 0x69a <__divsf3+0x68>
     698:	6e c0       	rjmp	.+220    	; 0x776 <__divsf3+0x144>
     69a:	60 e6       	ldi	r22, 0x60	; 96
     69c:	70 e0       	ldi	r23, 0x00	; 0
     69e:	6e c0       	rjmp	.+220    	; 0x77c <__divsf3+0x14a>
     6a0:	34 30       	cpi	r19, 0x04	; 4
     6a2:	39 f4       	brne	.+14     	; 0x6b2 <__divsf3+0x80>
     6a4:	1d 86       	std	Y+13, r1	; 0x0d
     6a6:	1e 86       	std	Y+14, r1	; 0x0e
     6a8:	1f 86       	std	Y+15, r1	; 0x0f
     6aa:	18 8a       	std	Y+16, r1	; 0x10
     6ac:	1c 86       	std	Y+12, r1	; 0x0c
     6ae:	1b 86       	std	Y+11, r1	; 0x0b
     6b0:	04 c0       	rjmp	.+8      	; 0x6ba <__divsf3+0x88>
     6b2:	32 30       	cpi	r19, 0x02	; 2
     6b4:	21 f4       	brne	.+8      	; 0x6be <__divsf3+0x8c>
     6b6:	84 e0       	ldi	r24, 0x04	; 4
     6b8:	89 87       	std	Y+9, r24	; 0x09
     6ba:	b7 01       	movw	r22, r14
     6bc:	5f c0       	rjmp	.+190    	; 0x77c <__divsf3+0x14a>
     6be:	2b 85       	ldd	r18, Y+11	; 0x0b
     6c0:	3c 85       	ldd	r19, Y+12	; 0x0c
     6c2:	8b 89       	ldd	r24, Y+19	; 0x13
     6c4:	9c 89       	ldd	r25, Y+20	; 0x14
     6c6:	28 1b       	sub	r18, r24
     6c8:	39 0b       	sbc	r19, r25
     6ca:	3c 87       	std	Y+12, r19	; 0x0c
     6cc:	2b 87       	std	Y+11, r18	; 0x0b
     6ce:	ed 84       	ldd	r14, Y+13	; 0x0d
     6d0:	fe 84       	ldd	r15, Y+14	; 0x0e
     6d2:	0f 85       	ldd	r16, Y+15	; 0x0f
     6d4:	18 89       	ldd	r17, Y+16	; 0x10
     6d6:	ad 88       	ldd	r10, Y+21	; 0x15
     6d8:	be 88       	ldd	r11, Y+22	; 0x16
     6da:	cf 88       	ldd	r12, Y+23	; 0x17
     6dc:	d8 8c       	ldd	r13, Y+24	; 0x18
     6de:	ea 14       	cp	r14, r10
     6e0:	fb 04       	cpc	r15, r11
     6e2:	0c 05       	cpc	r16, r12
     6e4:	1d 05       	cpc	r17, r13
     6e6:	40 f4       	brcc	.+16     	; 0x6f8 <__divsf3+0xc6>
     6e8:	ee 0c       	add	r14, r14
     6ea:	ff 1c       	adc	r15, r15
     6ec:	00 1f       	adc	r16, r16
     6ee:	11 1f       	adc	r17, r17
     6f0:	21 50       	subi	r18, 0x01	; 1
     6f2:	30 40       	sbci	r19, 0x00	; 0
     6f4:	3c 87       	std	Y+12, r19	; 0x0c
     6f6:	2b 87       	std	Y+11, r18	; 0x0b
     6f8:	20 e0       	ldi	r18, 0x00	; 0
     6fa:	30 e0       	ldi	r19, 0x00	; 0
     6fc:	40 e0       	ldi	r20, 0x00	; 0
     6fe:	50 e0       	ldi	r21, 0x00	; 0
     700:	80 e0       	ldi	r24, 0x00	; 0
     702:	90 e0       	ldi	r25, 0x00	; 0
     704:	a0 e0       	ldi	r26, 0x00	; 0
     706:	b0 e4       	ldi	r27, 0x40	; 64
     708:	60 e0       	ldi	r22, 0x00	; 0
     70a:	70 e0       	ldi	r23, 0x00	; 0
     70c:	ea 14       	cp	r14, r10
     70e:	fb 04       	cpc	r15, r11
     710:	0c 05       	cpc	r16, r12
     712:	1d 05       	cpc	r17, r13
     714:	40 f0       	brcs	.+16     	; 0x726 <__divsf3+0xf4>
     716:	28 2b       	or	r18, r24
     718:	39 2b       	or	r19, r25
     71a:	4a 2b       	or	r20, r26
     71c:	5b 2b       	or	r21, r27
     71e:	ea 18       	sub	r14, r10
     720:	fb 08       	sbc	r15, r11
     722:	0c 09       	sbc	r16, r12
     724:	1d 09       	sbc	r17, r13
     726:	b6 95       	lsr	r27
     728:	a7 95       	ror	r26
     72a:	97 95       	ror	r25
     72c:	87 95       	ror	r24
     72e:	ee 0c       	add	r14, r14
     730:	ff 1c       	adc	r15, r15
     732:	00 1f       	adc	r16, r16
     734:	11 1f       	adc	r17, r17
     736:	6f 5f       	subi	r22, 0xFF	; 255
     738:	7f 4f       	sbci	r23, 0xFF	; 255
     73a:	6f 31       	cpi	r22, 0x1F	; 31
     73c:	71 05       	cpc	r23, r1
     73e:	31 f7       	brne	.-52     	; 0x70c <__divsf3+0xda>
     740:	da 01       	movw	r26, r20
     742:	c9 01       	movw	r24, r18
     744:	8f 77       	andi	r24, 0x7F	; 127
     746:	90 70       	andi	r25, 0x00	; 0
     748:	a0 70       	andi	r26, 0x00	; 0
     74a:	b0 70       	andi	r27, 0x00	; 0
     74c:	80 34       	cpi	r24, 0x40	; 64
     74e:	91 05       	cpc	r25, r1
     750:	a1 05       	cpc	r26, r1
     752:	b1 05       	cpc	r27, r1
     754:	61 f4       	brne	.+24     	; 0x76e <__divsf3+0x13c>
     756:	27 fd       	sbrc	r18, 7
     758:	0a c0       	rjmp	.+20     	; 0x76e <__divsf3+0x13c>
     75a:	e1 14       	cp	r14, r1
     75c:	f1 04       	cpc	r15, r1
     75e:	01 05       	cpc	r16, r1
     760:	11 05       	cpc	r17, r1
     762:	29 f0       	breq	.+10     	; 0x76e <__divsf3+0x13c>
     764:	20 5c       	subi	r18, 0xC0	; 192
     766:	3f 4f       	sbci	r19, 0xFF	; 255
     768:	4f 4f       	sbci	r20, 0xFF	; 255
     76a:	5f 4f       	sbci	r21, 0xFF	; 255
     76c:	20 78       	andi	r18, 0x80	; 128
     76e:	2d 87       	std	Y+13, r18	; 0x0d
     770:	3e 87       	std	Y+14, r19	; 0x0e
     772:	4f 87       	std	Y+15, r20	; 0x0f
     774:	58 8b       	std	Y+16, r21	; 0x10
     776:	be 01       	movw	r22, r28
     778:	67 5f       	subi	r22, 0xF7	; 247
     77a:	7f 4f       	sbci	r23, 0xFF	; 255
     77c:	cb 01       	movw	r24, r22
     77e:	0e 94 a9 04 	call	0x952	; 0x952 <__pack_f>
     782:	68 96       	adiw	r28, 0x18	; 24
     784:	ea e0       	ldi	r30, 0x0A	; 10
     786:	0c 94 71 13 	jmp	0x26e2	; 0x26e2 <__epilogue_restores__+0x10>

0000078a <__gtsf2>:
     78a:	a8 e1       	ldi	r26, 0x18	; 24
     78c:	b0 e0       	ldi	r27, 0x00	; 0
     78e:	eb ec       	ldi	r30, 0xCB	; 203
     790:	f3 e0       	ldi	r31, 0x03	; 3
     792:	0c 94 59 13 	jmp	0x26b2	; 0x26b2 <__prologue_saves__+0x18>
     796:	69 83       	std	Y+1, r22	; 0x01
     798:	7a 83       	std	Y+2, r23	; 0x02
     79a:	8b 83       	std	Y+3, r24	; 0x03
     79c:	9c 83       	std	Y+4, r25	; 0x04
     79e:	2d 83       	std	Y+5, r18	; 0x05
     7a0:	3e 83       	std	Y+6, r19	; 0x06
     7a2:	4f 83       	std	Y+7, r20	; 0x07
     7a4:	58 87       	std	Y+8, r21	; 0x08
     7a6:	89 e0       	ldi	r24, 0x09	; 9
     7a8:	e8 2e       	mov	r14, r24
     7aa:	f1 2c       	mov	r15, r1
     7ac:	ec 0e       	add	r14, r28
     7ae:	fd 1e       	adc	r15, r29
     7b0:	ce 01       	movw	r24, r28
     7b2:	01 96       	adiw	r24, 0x01	; 1
     7b4:	b7 01       	movw	r22, r14
     7b6:	0e 94 7e 05 	call	0xafc	; 0xafc <__unpack_f>
     7ba:	8e 01       	movw	r16, r28
     7bc:	0f 5e       	subi	r16, 0xEF	; 239
     7be:	1f 4f       	sbci	r17, 0xFF	; 255
     7c0:	ce 01       	movw	r24, r28
     7c2:	05 96       	adiw	r24, 0x05	; 5
     7c4:	b8 01       	movw	r22, r16
     7c6:	0e 94 7e 05 	call	0xafc	; 0xafc <__unpack_f>
     7ca:	89 85       	ldd	r24, Y+9	; 0x09
     7cc:	82 30       	cpi	r24, 0x02	; 2
     7ce:	40 f0       	brcs	.+16     	; 0x7e0 <__gtsf2+0x56>
     7d0:	89 89       	ldd	r24, Y+17	; 0x11
     7d2:	82 30       	cpi	r24, 0x02	; 2
     7d4:	28 f0       	brcs	.+10     	; 0x7e0 <__gtsf2+0x56>
     7d6:	c7 01       	movw	r24, r14
     7d8:	b8 01       	movw	r22, r16
     7da:	0e 94 f6 05 	call	0xbec	; 0xbec <__fpcmp_parts_f>
     7de:	01 c0       	rjmp	.+2      	; 0x7e2 <__gtsf2+0x58>
     7e0:	8f ef       	ldi	r24, 0xFF	; 255
     7e2:	68 96       	adiw	r28, 0x18	; 24
     7e4:	e6 e0       	ldi	r30, 0x06	; 6
     7e6:	0c 94 75 13 	jmp	0x26ea	; 0x26ea <__epilogue_restores__+0x18>

000007ea <__gesf2>:
     7ea:	a8 e1       	ldi	r26, 0x18	; 24
     7ec:	b0 e0       	ldi	r27, 0x00	; 0
     7ee:	eb ef       	ldi	r30, 0xFB	; 251
     7f0:	f3 e0       	ldi	r31, 0x03	; 3
     7f2:	0c 94 59 13 	jmp	0x26b2	; 0x26b2 <__prologue_saves__+0x18>
     7f6:	69 83       	std	Y+1, r22	; 0x01
     7f8:	7a 83       	std	Y+2, r23	; 0x02
     7fa:	8b 83       	std	Y+3, r24	; 0x03
     7fc:	9c 83       	std	Y+4, r25	; 0x04
     7fe:	2d 83       	std	Y+5, r18	; 0x05
     800:	3e 83       	std	Y+6, r19	; 0x06
     802:	4f 83       	std	Y+7, r20	; 0x07
     804:	58 87       	std	Y+8, r21	; 0x08
     806:	89 e0       	ldi	r24, 0x09	; 9
     808:	e8 2e       	mov	r14, r24
     80a:	f1 2c       	mov	r15, r1
     80c:	ec 0e       	add	r14, r28
     80e:	fd 1e       	adc	r15, r29
     810:	ce 01       	movw	r24, r28
     812:	01 96       	adiw	r24, 0x01	; 1
     814:	b7 01       	movw	r22, r14
     816:	0e 94 7e 05 	call	0xafc	; 0xafc <__unpack_f>
     81a:	8e 01       	movw	r16, r28
     81c:	0f 5e       	subi	r16, 0xEF	; 239
     81e:	1f 4f       	sbci	r17, 0xFF	; 255
     820:	ce 01       	movw	r24, r28
     822:	05 96       	adiw	r24, 0x05	; 5
     824:	b8 01       	movw	r22, r16
     826:	0e 94 7e 05 	call	0xafc	; 0xafc <__unpack_f>
     82a:	89 85       	ldd	r24, Y+9	; 0x09
     82c:	82 30       	cpi	r24, 0x02	; 2
     82e:	40 f0       	brcs	.+16     	; 0x840 <__gesf2+0x56>
     830:	89 89       	ldd	r24, Y+17	; 0x11
     832:	82 30       	cpi	r24, 0x02	; 2
     834:	28 f0       	brcs	.+10     	; 0x840 <__gesf2+0x56>
     836:	c7 01       	movw	r24, r14
     838:	b8 01       	movw	r22, r16
     83a:	0e 94 f6 05 	call	0xbec	; 0xbec <__fpcmp_parts_f>
     83e:	01 c0       	rjmp	.+2      	; 0x842 <__gesf2+0x58>
     840:	8f ef       	ldi	r24, 0xFF	; 255
     842:	68 96       	adiw	r28, 0x18	; 24
     844:	e6 e0       	ldi	r30, 0x06	; 6
     846:	0c 94 75 13 	jmp	0x26ea	; 0x26ea <__epilogue_restores__+0x18>

0000084a <__ltsf2>:
     84a:	a8 e1       	ldi	r26, 0x18	; 24
     84c:	b0 e0       	ldi	r27, 0x00	; 0
     84e:	eb e2       	ldi	r30, 0x2B	; 43
     850:	f4 e0       	ldi	r31, 0x04	; 4
     852:	0c 94 59 13 	jmp	0x26b2	; 0x26b2 <__prologue_saves__+0x18>
     856:	69 83       	std	Y+1, r22	; 0x01
     858:	7a 83       	std	Y+2, r23	; 0x02
     85a:	8b 83       	std	Y+3, r24	; 0x03
     85c:	9c 83       	std	Y+4, r25	; 0x04
     85e:	2d 83       	std	Y+5, r18	; 0x05
     860:	3e 83       	std	Y+6, r19	; 0x06
     862:	4f 83       	std	Y+7, r20	; 0x07
     864:	58 87       	std	Y+8, r21	; 0x08
     866:	89 e0       	ldi	r24, 0x09	; 9
     868:	e8 2e       	mov	r14, r24
     86a:	f1 2c       	mov	r15, r1
     86c:	ec 0e       	add	r14, r28
     86e:	fd 1e       	adc	r15, r29
     870:	ce 01       	movw	r24, r28
     872:	01 96       	adiw	r24, 0x01	; 1
     874:	b7 01       	movw	r22, r14
     876:	0e 94 7e 05 	call	0xafc	; 0xafc <__unpack_f>
     87a:	8e 01       	movw	r16, r28
     87c:	0f 5e       	subi	r16, 0xEF	; 239
     87e:	1f 4f       	sbci	r17, 0xFF	; 255
     880:	ce 01       	movw	r24, r28
     882:	05 96       	adiw	r24, 0x05	; 5
     884:	b8 01       	movw	r22, r16
     886:	0e 94 7e 05 	call	0xafc	; 0xafc <__unpack_f>
     88a:	89 85       	ldd	r24, Y+9	; 0x09
     88c:	82 30       	cpi	r24, 0x02	; 2
     88e:	40 f0       	brcs	.+16     	; 0x8a0 <__stack+0x41>
     890:	89 89       	ldd	r24, Y+17	; 0x11
     892:	82 30       	cpi	r24, 0x02	; 2
     894:	28 f0       	brcs	.+10     	; 0x8a0 <__stack+0x41>
     896:	c7 01       	movw	r24, r14
     898:	b8 01       	movw	r22, r16
     89a:	0e 94 f6 05 	call	0xbec	; 0xbec <__fpcmp_parts_f>
     89e:	01 c0       	rjmp	.+2      	; 0x8a2 <__stack+0x43>
     8a0:	81 e0       	ldi	r24, 0x01	; 1
     8a2:	68 96       	adiw	r28, 0x18	; 24
     8a4:	e6 e0       	ldi	r30, 0x06	; 6
     8a6:	0c 94 75 13 	jmp	0x26ea	; 0x26ea <__epilogue_restores__+0x18>

000008aa <__fixsfsi>:
     8aa:	ac e0       	ldi	r26, 0x0C	; 12
     8ac:	b0 e0       	ldi	r27, 0x00	; 0
     8ae:	eb e5       	ldi	r30, 0x5B	; 91
     8b0:	f4 e0       	ldi	r31, 0x04	; 4
     8b2:	0c 94 5d 13 	jmp	0x26ba	; 0x26ba <__prologue_saves__+0x20>
     8b6:	69 83       	std	Y+1, r22	; 0x01
     8b8:	7a 83       	std	Y+2, r23	; 0x02
     8ba:	8b 83       	std	Y+3, r24	; 0x03
     8bc:	9c 83       	std	Y+4, r25	; 0x04
     8be:	ce 01       	movw	r24, r28
     8c0:	01 96       	adiw	r24, 0x01	; 1
     8c2:	be 01       	movw	r22, r28
     8c4:	6b 5f       	subi	r22, 0xFB	; 251
     8c6:	7f 4f       	sbci	r23, 0xFF	; 255
     8c8:	0e 94 7e 05 	call	0xafc	; 0xafc <__unpack_f>
     8cc:	8d 81       	ldd	r24, Y+5	; 0x05
     8ce:	82 30       	cpi	r24, 0x02	; 2
     8d0:	61 f1       	breq	.+88     	; 0x92a <__fixsfsi+0x80>
     8d2:	82 30       	cpi	r24, 0x02	; 2
     8d4:	50 f1       	brcs	.+84     	; 0x92a <__fixsfsi+0x80>
     8d6:	84 30       	cpi	r24, 0x04	; 4
     8d8:	21 f4       	brne	.+8      	; 0x8e2 <__fixsfsi+0x38>
     8da:	8e 81       	ldd	r24, Y+6	; 0x06
     8dc:	88 23       	and	r24, r24
     8de:	51 f1       	breq	.+84     	; 0x934 <__fixsfsi+0x8a>
     8e0:	2e c0       	rjmp	.+92     	; 0x93e <__fixsfsi+0x94>
     8e2:	2f 81       	ldd	r18, Y+7	; 0x07
     8e4:	38 85       	ldd	r19, Y+8	; 0x08
     8e6:	37 fd       	sbrc	r19, 7
     8e8:	20 c0       	rjmp	.+64     	; 0x92a <__fixsfsi+0x80>
     8ea:	6e 81       	ldd	r22, Y+6	; 0x06
     8ec:	2f 31       	cpi	r18, 0x1F	; 31
     8ee:	31 05       	cpc	r19, r1
     8f0:	1c f0       	brlt	.+6      	; 0x8f8 <__fixsfsi+0x4e>
     8f2:	66 23       	and	r22, r22
     8f4:	f9 f0       	breq	.+62     	; 0x934 <__fixsfsi+0x8a>
     8f6:	23 c0       	rjmp	.+70     	; 0x93e <__fixsfsi+0x94>
     8f8:	8e e1       	ldi	r24, 0x1E	; 30
     8fa:	90 e0       	ldi	r25, 0x00	; 0
     8fc:	82 1b       	sub	r24, r18
     8fe:	93 0b       	sbc	r25, r19
     900:	29 85       	ldd	r18, Y+9	; 0x09
     902:	3a 85       	ldd	r19, Y+10	; 0x0a
     904:	4b 85       	ldd	r20, Y+11	; 0x0b
     906:	5c 85       	ldd	r21, Y+12	; 0x0c
     908:	04 c0       	rjmp	.+8      	; 0x912 <__fixsfsi+0x68>
     90a:	56 95       	lsr	r21
     90c:	47 95       	ror	r20
     90e:	37 95       	ror	r19
     910:	27 95       	ror	r18
     912:	8a 95       	dec	r24
     914:	d2 f7       	brpl	.-12     	; 0x90a <__fixsfsi+0x60>
     916:	66 23       	and	r22, r22
     918:	b1 f0       	breq	.+44     	; 0x946 <__fixsfsi+0x9c>
     91a:	50 95       	com	r21
     91c:	40 95       	com	r20
     91e:	30 95       	com	r19
     920:	21 95       	neg	r18
     922:	3f 4f       	sbci	r19, 0xFF	; 255
     924:	4f 4f       	sbci	r20, 0xFF	; 255
     926:	5f 4f       	sbci	r21, 0xFF	; 255
     928:	0e c0       	rjmp	.+28     	; 0x946 <__fixsfsi+0x9c>
     92a:	20 e0       	ldi	r18, 0x00	; 0
     92c:	30 e0       	ldi	r19, 0x00	; 0
     92e:	40 e0       	ldi	r20, 0x00	; 0
     930:	50 e0       	ldi	r21, 0x00	; 0
     932:	09 c0       	rjmp	.+18     	; 0x946 <__fixsfsi+0x9c>
     934:	2f ef       	ldi	r18, 0xFF	; 255
     936:	3f ef       	ldi	r19, 0xFF	; 255
     938:	4f ef       	ldi	r20, 0xFF	; 255
     93a:	5f e7       	ldi	r21, 0x7F	; 127
     93c:	04 c0       	rjmp	.+8      	; 0x946 <__fixsfsi+0x9c>
     93e:	20 e0       	ldi	r18, 0x00	; 0
     940:	30 e0       	ldi	r19, 0x00	; 0
     942:	40 e0       	ldi	r20, 0x00	; 0
     944:	50 e8       	ldi	r21, 0x80	; 128
     946:	b9 01       	movw	r22, r18
     948:	ca 01       	movw	r24, r20
     94a:	2c 96       	adiw	r28, 0x0c	; 12
     94c:	e2 e0       	ldi	r30, 0x02	; 2
     94e:	0c 94 79 13 	jmp	0x26f2	; 0x26f2 <__epilogue_restores__+0x20>

00000952 <__pack_f>:
     952:	df 92       	push	r13
     954:	ef 92       	push	r14
     956:	ff 92       	push	r15
     958:	0f 93       	push	r16
     95a:	1f 93       	push	r17
     95c:	fc 01       	movw	r30, r24
     95e:	e4 80       	ldd	r14, Z+4	; 0x04
     960:	f5 80       	ldd	r15, Z+5	; 0x05
     962:	06 81       	ldd	r16, Z+6	; 0x06
     964:	17 81       	ldd	r17, Z+7	; 0x07
     966:	d1 80       	ldd	r13, Z+1	; 0x01
     968:	80 81       	ld	r24, Z
     96a:	82 30       	cpi	r24, 0x02	; 2
     96c:	48 f4       	brcc	.+18     	; 0x980 <__pack_f+0x2e>
     96e:	80 e0       	ldi	r24, 0x00	; 0
     970:	90 e0       	ldi	r25, 0x00	; 0
     972:	a0 e1       	ldi	r26, 0x10	; 16
     974:	b0 e0       	ldi	r27, 0x00	; 0
     976:	e8 2a       	or	r14, r24
     978:	f9 2a       	or	r15, r25
     97a:	0a 2b       	or	r16, r26
     97c:	1b 2b       	or	r17, r27
     97e:	a5 c0       	rjmp	.+330    	; 0xaca <__pack_f+0x178>
     980:	84 30       	cpi	r24, 0x04	; 4
     982:	09 f4       	brne	.+2      	; 0x986 <__pack_f+0x34>
     984:	9f c0       	rjmp	.+318    	; 0xac4 <__pack_f+0x172>
     986:	82 30       	cpi	r24, 0x02	; 2
     988:	21 f4       	brne	.+8      	; 0x992 <__pack_f+0x40>
     98a:	ee 24       	eor	r14, r14
     98c:	ff 24       	eor	r15, r15
     98e:	87 01       	movw	r16, r14
     990:	05 c0       	rjmp	.+10     	; 0x99c <__pack_f+0x4a>
     992:	e1 14       	cp	r14, r1
     994:	f1 04       	cpc	r15, r1
     996:	01 05       	cpc	r16, r1
     998:	11 05       	cpc	r17, r1
     99a:	19 f4       	brne	.+6      	; 0x9a2 <__pack_f+0x50>
     99c:	e0 e0       	ldi	r30, 0x00	; 0
     99e:	f0 e0       	ldi	r31, 0x00	; 0
     9a0:	96 c0       	rjmp	.+300    	; 0xace <__pack_f+0x17c>
     9a2:	62 81       	ldd	r22, Z+2	; 0x02
     9a4:	73 81       	ldd	r23, Z+3	; 0x03
     9a6:	9f ef       	ldi	r25, 0xFF	; 255
     9a8:	62 38       	cpi	r22, 0x82	; 130
     9aa:	79 07       	cpc	r23, r25
     9ac:	0c f0       	brlt	.+2      	; 0x9b0 <__pack_f+0x5e>
     9ae:	5b c0       	rjmp	.+182    	; 0xa66 <__pack_f+0x114>
     9b0:	22 e8       	ldi	r18, 0x82	; 130
     9b2:	3f ef       	ldi	r19, 0xFF	; 255
     9b4:	26 1b       	sub	r18, r22
     9b6:	37 0b       	sbc	r19, r23
     9b8:	2a 31       	cpi	r18, 0x1A	; 26
     9ba:	31 05       	cpc	r19, r1
     9bc:	2c f0       	brlt	.+10     	; 0x9c8 <__pack_f+0x76>
     9be:	20 e0       	ldi	r18, 0x00	; 0
     9c0:	30 e0       	ldi	r19, 0x00	; 0
     9c2:	40 e0       	ldi	r20, 0x00	; 0
     9c4:	50 e0       	ldi	r21, 0x00	; 0
     9c6:	2a c0       	rjmp	.+84     	; 0xa1c <__pack_f+0xca>
     9c8:	b8 01       	movw	r22, r16
     9ca:	a7 01       	movw	r20, r14
     9cc:	02 2e       	mov	r0, r18
     9ce:	04 c0       	rjmp	.+8      	; 0x9d8 <__pack_f+0x86>
     9d0:	76 95       	lsr	r23
     9d2:	67 95       	ror	r22
     9d4:	57 95       	ror	r21
     9d6:	47 95       	ror	r20
     9d8:	0a 94       	dec	r0
     9da:	d2 f7       	brpl	.-12     	; 0x9d0 <__pack_f+0x7e>
     9dc:	81 e0       	ldi	r24, 0x01	; 1
     9de:	90 e0       	ldi	r25, 0x00	; 0
     9e0:	a0 e0       	ldi	r26, 0x00	; 0
     9e2:	b0 e0       	ldi	r27, 0x00	; 0
     9e4:	04 c0       	rjmp	.+8      	; 0x9ee <__pack_f+0x9c>
     9e6:	88 0f       	add	r24, r24
     9e8:	99 1f       	adc	r25, r25
     9ea:	aa 1f       	adc	r26, r26
     9ec:	bb 1f       	adc	r27, r27
     9ee:	2a 95       	dec	r18
     9f0:	d2 f7       	brpl	.-12     	; 0x9e6 <__pack_f+0x94>
     9f2:	01 97       	sbiw	r24, 0x01	; 1
     9f4:	a1 09       	sbc	r26, r1
     9f6:	b1 09       	sbc	r27, r1
     9f8:	8e 21       	and	r24, r14
     9fa:	9f 21       	and	r25, r15
     9fc:	a0 23       	and	r26, r16
     9fe:	b1 23       	and	r27, r17
     a00:	00 97       	sbiw	r24, 0x00	; 0
     a02:	a1 05       	cpc	r26, r1
     a04:	b1 05       	cpc	r27, r1
     a06:	21 f0       	breq	.+8      	; 0xa10 <__pack_f+0xbe>
     a08:	81 e0       	ldi	r24, 0x01	; 1
     a0a:	90 e0       	ldi	r25, 0x00	; 0
     a0c:	a0 e0       	ldi	r26, 0x00	; 0
     a0e:	b0 e0       	ldi	r27, 0x00	; 0
     a10:	9a 01       	movw	r18, r20
     a12:	ab 01       	movw	r20, r22
     a14:	28 2b       	or	r18, r24
     a16:	39 2b       	or	r19, r25
     a18:	4a 2b       	or	r20, r26
     a1a:	5b 2b       	or	r21, r27
     a1c:	da 01       	movw	r26, r20
     a1e:	c9 01       	movw	r24, r18
     a20:	8f 77       	andi	r24, 0x7F	; 127
     a22:	90 70       	andi	r25, 0x00	; 0
     a24:	a0 70       	andi	r26, 0x00	; 0
     a26:	b0 70       	andi	r27, 0x00	; 0
     a28:	80 34       	cpi	r24, 0x40	; 64
     a2a:	91 05       	cpc	r25, r1
     a2c:	a1 05       	cpc	r26, r1
     a2e:	b1 05       	cpc	r27, r1
     a30:	39 f4       	brne	.+14     	; 0xa40 <__pack_f+0xee>
     a32:	27 ff       	sbrs	r18, 7
     a34:	09 c0       	rjmp	.+18     	; 0xa48 <__pack_f+0xf6>
     a36:	20 5c       	subi	r18, 0xC0	; 192
     a38:	3f 4f       	sbci	r19, 0xFF	; 255
     a3a:	4f 4f       	sbci	r20, 0xFF	; 255
     a3c:	5f 4f       	sbci	r21, 0xFF	; 255
     a3e:	04 c0       	rjmp	.+8      	; 0xa48 <__pack_f+0xf6>
     a40:	21 5c       	subi	r18, 0xC1	; 193
     a42:	3f 4f       	sbci	r19, 0xFF	; 255
     a44:	4f 4f       	sbci	r20, 0xFF	; 255
     a46:	5f 4f       	sbci	r21, 0xFF	; 255
     a48:	e0 e0       	ldi	r30, 0x00	; 0
     a4a:	f0 e0       	ldi	r31, 0x00	; 0
     a4c:	20 30       	cpi	r18, 0x00	; 0
     a4e:	a0 e0       	ldi	r26, 0x00	; 0
     a50:	3a 07       	cpc	r19, r26
     a52:	a0 e0       	ldi	r26, 0x00	; 0
     a54:	4a 07       	cpc	r20, r26
     a56:	a0 e4       	ldi	r26, 0x40	; 64
     a58:	5a 07       	cpc	r21, r26
     a5a:	10 f0       	brcs	.+4      	; 0xa60 <__pack_f+0x10e>
     a5c:	e1 e0       	ldi	r30, 0x01	; 1
     a5e:	f0 e0       	ldi	r31, 0x00	; 0
     a60:	79 01       	movw	r14, r18
     a62:	8a 01       	movw	r16, r20
     a64:	27 c0       	rjmp	.+78     	; 0xab4 <__pack_f+0x162>
     a66:	60 38       	cpi	r22, 0x80	; 128
     a68:	71 05       	cpc	r23, r1
     a6a:	64 f5       	brge	.+88     	; 0xac4 <__pack_f+0x172>
     a6c:	fb 01       	movw	r30, r22
     a6e:	e1 58       	subi	r30, 0x81	; 129
     a70:	ff 4f       	sbci	r31, 0xFF	; 255
     a72:	d8 01       	movw	r26, r16
     a74:	c7 01       	movw	r24, r14
     a76:	8f 77       	andi	r24, 0x7F	; 127
     a78:	90 70       	andi	r25, 0x00	; 0
     a7a:	a0 70       	andi	r26, 0x00	; 0
     a7c:	b0 70       	andi	r27, 0x00	; 0
     a7e:	80 34       	cpi	r24, 0x40	; 64
     a80:	91 05       	cpc	r25, r1
     a82:	a1 05       	cpc	r26, r1
     a84:	b1 05       	cpc	r27, r1
     a86:	39 f4       	brne	.+14     	; 0xa96 <__pack_f+0x144>
     a88:	e7 fe       	sbrs	r14, 7
     a8a:	0d c0       	rjmp	.+26     	; 0xaa6 <__pack_f+0x154>
     a8c:	80 e4       	ldi	r24, 0x40	; 64
     a8e:	90 e0       	ldi	r25, 0x00	; 0
     a90:	a0 e0       	ldi	r26, 0x00	; 0
     a92:	b0 e0       	ldi	r27, 0x00	; 0
     a94:	04 c0       	rjmp	.+8      	; 0xa9e <__pack_f+0x14c>
     a96:	8f e3       	ldi	r24, 0x3F	; 63
     a98:	90 e0       	ldi	r25, 0x00	; 0
     a9a:	a0 e0       	ldi	r26, 0x00	; 0
     a9c:	b0 e0       	ldi	r27, 0x00	; 0
     a9e:	e8 0e       	add	r14, r24
     aa0:	f9 1e       	adc	r15, r25
     aa2:	0a 1f       	adc	r16, r26
     aa4:	1b 1f       	adc	r17, r27
     aa6:	17 ff       	sbrs	r17, 7
     aa8:	05 c0       	rjmp	.+10     	; 0xab4 <__pack_f+0x162>
     aaa:	16 95       	lsr	r17
     aac:	07 95       	ror	r16
     aae:	f7 94       	ror	r15
     ab0:	e7 94       	ror	r14
     ab2:	31 96       	adiw	r30, 0x01	; 1
     ab4:	87 e0       	ldi	r24, 0x07	; 7
     ab6:	16 95       	lsr	r17
     ab8:	07 95       	ror	r16
     aba:	f7 94       	ror	r15
     abc:	e7 94       	ror	r14
     abe:	8a 95       	dec	r24
     ac0:	d1 f7       	brne	.-12     	; 0xab6 <__pack_f+0x164>
     ac2:	05 c0       	rjmp	.+10     	; 0xace <__pack_f+0x17c>
     ac4:	ee 24       	eor	r14, r14
     ac6:	ff 24       	eor	r15, r15
     ac8:	87 01       	movw	r16, r14
     aca:	ef ef       	ldi	r30, 0xFF	; 255
     acc:	f0 e0       	ldi	r31, 0x00	; 0
     ace:	6e 2f       	mov	r22, r30
     ad0:	67 95       	ror	r22
     ad2:	66 27       	eor	r22, r22
     ad4:	67 95       	ror	r22
     ad6:	90 2f       	mov	r25, r16
     ad8:	9f 77       	andi	r25, 0x7F	; 127
     ada:	d7 94       	ror	r13
     adc:	dd 24       	eor	r13, r13
     ade:	d7 94       	ror	r13
     ae0:	8e 2f       	mov	r24, r30
     ae2:	86 95       	lsr	r24
     ae4:	49 2f       	mov	r20, r25
     ae6:	46 2b       	or	r20, r22
     ae8:	58 2f       	mov	r21, r24
     aea:	5d 29       	or	r21, r13
     aec:	b7 01       	movw	r22, r14
     aee:	ca 01       	movw	r24, r20
     af0:	1f 91       	pop	r17
     af2:	0f 91       	pop	r16
     af4:	ff 90       	pop	r15
     af6:	ef 90       	pop	r14
     af8:	df 90       	pop	r13
     afa:	08 95       	ret

00000afc <__unpack_f>:
     afc:	fc 01       	movw	r30, r24
     afe:	db 01       	movw	r26, r22
     b00:	40 81       	ld	r20, Z
     b02:	51 81       	ldd	r21, Z+1	; 0x01
     b04:	22 81       	ldd	r18, Z+2	; 0x02
     b06:	62 2f       	mov	r22, r18
     b08:	6f 77       	andi	r22, 0x7F	; 127
     b0a:	70 e0       	ldi	r23, 0x00	; 0
     b0c:	22 1f       	adc	r18, r18
     b0e:	22 27       	eor	r18, r18
     b10:	22 1f       	adc	r18, r18
     b12:	93 81       	ldd	r25, Z+3	; 0x03
     b14:	89 2f       	mov	r24, r25
     b16:	88 0f       	add	r24, r24
     b18:	82 2b       	or	r24, r18
     b1a:	28 2f       	mov	r18, r24
     b1c:	30 e0       	ldi	r19, 0x00	; 0
     b1e:	99 1f       	adc	r25, r25
     b20:	99 27       	eor	r25, r25
     b22:	99 1f       	adc	r25, r25
     b24:	11 96       	adiw	r26, 0x01	; 1
     b26:	9c 93       	st	X, r25
     b28:	11 97       	sbiw	r26, 0x01	; 1
     b2a:	21 15       	cp	r18, r1
     b2c:	31 05       	cpc	r19, r1
     b2e:	a9 f5       	brne	.+106    	; 0xb9a <__unpack_f+0x9e>
     b30:	41 15       	cp	r20, r1
     b32:	51 05       	cpc	r21, r1
     b34:	61 05       	cpc	r22, r1
     b36:	71 05       	cpc	r23, r1
     b38:	11 f4       	brne	.+4      	; 0xb3e <__unpack_f+0x42>
     b3a:	82 e0       	ldi	r24, 0x02	; 2
     b3c:	37 c0       	rjmp	.+110    	; 0xbac <__unpack_f+0xb0>
     b3e:	82 e8       	ldi	r24, 0x82	; 130
     b40:	9f ef       	ldi	r25, 0xFF	; 255
     b42:	13 96       	adiw	r26, 0x03	; 3
     b44:	9c 93       	st	X, r25
     b46:	8e 93       	st	-X, r24
     b48:	12 97       	sbiw	r26, 0x02	; 2
     b4a:	9a 01       	movw	r18, r20
     b4c:	ab 01       	movw	r20, r22
     b4e:	67 e0       	ldi	r22, 0x07	; 7
     b50:	22 0f       	add	r18, r18
     b52:	33 1f       	adc	r19, r19
     b54:	44 1f       	adc	r20, r20
     b56:	55 1f       	adc	r21, r21
     b58:	6a 95       	dec	r22
     b5a:	d1 f7       	brne	.-12     	; 0xb50 <__unpack_f+0x54>
     b5c:	83 e0       	ldi	r24, 0x03	; 3
     b5e:	8c 93       	st	X, r24
     b60:	0d c0       	rjmp	.+26     	; 0xb7c <__unpack_f+0x80>
     b62:	22 0f       	add	r18, r18
     b64:	33 1f       	adc	r19, r19
     b66:	44 1f       	adc	r20, r20
     b68:	55 1f       	adc	r21, r21
     b6a:	12 96       	adiw	r26, 0x02	; 2
     b6c:	8d 91       	ld	r24, X+
     b6e:	9c 91       	ld	r25, X
     b70:	13 97       	sbiw	r26, 0x03	; 3
     b72:	01 97       	sbiw	r24, 0x01	; 1
     b74:	13 96       	adiw	r26, 0x03	; 3
     b76:	9c 93       	st	X, r25
     b78:	8e 93       	st	-X, r24
     b7a:	12 97       	sbiw	r26, 0x02	; 2
     b7c:	20 30       	cpi	r18, 0x00	; 0
     b7e:	80 e0       	ldi	r24, 0x00	; 0
     b80:	38 07       	cpc	r19, r24
     b82:	80 e0       	ldi	r24, 0x00	; 0
     b84:	48 07       	cpc	r20, r24
     b86:	80 e4       	ldi	r24, 0x40	; 64
     b88:	58 07       	cpc	r21, r24
     b8a:	58 f3       	brcs	.-42     	; 0xb62 <__unpack_f+0x66>
     b8c:	14 96       	adiw	r26, 0x04	; 4
     b8e:	2d 93       	st	X+, r18
     b90:	3d 93       	st	X+, r19
     b92:	4d 93       	st	X+, r20
     b94:	5c 93       	st	X, r21
     b96:	17 97       	sbiw	r26, 0x07	; 7
     b98:	08 95       	ret
     b9a:	2f 3f       	cpi	r18, 0xFF	; 255
     b9c:	31 05       	cpc	r19, r1
     b9e:	79 f4       	brne	.+30     	; 0xbbe <__unpack_f+0xc2>
     ba0:	41 15       	cp	r20, r1
     ba2:	51 05       	cpc	r21, r1
     ba4:	61 05       	cpc	r22, r1
     ba6:	71 05       	cpc	r23, r1
     ba8:	19 f4       	brne	.+6      	; 0xbb0 <__unpack_f+0xb4>
     baa:	84 e0       	ldi	r24, 0x04	; 4
     bac:	8c 93       	st	X, r24
     bae:	08 95       	ret
     bb0:	64 ff       	sbrs	r22, 4
     bb2:	03 c0       	rjmp	.+6      	; 0xbba <__unpack_f+0xbe>
     bb4:	81 e0       	ldi	r24, 0x01	; 1
     bb6:	8c 93       	st	X, r24
     bb8:	12 c0       	rjmp	.+36     	; 0xbde <__unpack_f+0xe2>
     bba:	1c 92       	st	X, r1
     bbc:	10 c0       	rjmp	.+32     	; 0xbde <__unpack_f+0xe2>
     bbe:	2f 57       	subi	r18, 0x7F	; 127
     bc0:	30 40       	sbci	r19, 0x00	; 0
     bc2:	13 96       	adiw	r26, 0x03	; 3
     bc4:	3c 93       	st	X, r19
     bc6:	2e 93       	st	-X, r18
     bc8:	12 97       	sbiw	r26, 0x02	; 2
     bca:	83 e0       	ldi	r24, 0x03	; 3
     bcc:	8c 93       	st	X, r24
     bce:	87 e0       	ldi	r24, 0x07	; 7
     bd0:	44 0f       	add	r20, r20
     bd2:	55 1f       	adc	r21, r21
     bd4:	66 1f       	adc	r22, r22
     bd6:	77 1f       	adc	r23, r23
     bd8:	8a 95       	dec	r24
     bda:	d1 f7       	brne	.-12     	; 0xbd0 <__unpack_f+0xd4>
     bdc:	70 64       	ori	r23, 0x40	; 64
     bde:	14 96       	adiw	r26, 0x04	; 4
     be0:	4d 93       	st	X+, r20
     be2:	5d 93       	st	X+, r21
     be4:	6d 93       	st	X+, r22
     be6:	7c 93       	st	X, r23
     be8:	17 97       	sbiw	r26, 0x07	; 7
     bea:	08 95       	ret

00000bec <__fpcmp_parts_f>:
     bec:	1f 93       	push	r17
     bee:	dc 01       	movw	r26, r24
     bf0:	fb 01       	movw	r30, r22
     bf2:	9c 91       	ld	r25, X
     bf4:	92 30       	cpi	r25, 0x02	; 2
     bf6:	08 f4       	brcc	.+2      	; 0xbfa <__fpcmp_parts_f+0xe>
     bf8:	47 c0       	rjmp	.+142    	; 0xc88 <__fpcmp_parts_f+0x9c>
     bfa:	80 81       	ld	r24, Z
     bfc:	82 30       	cpi	r24, 0x02	; 2
     bfe:	08 f4       	brcc	.+2      	; 0xc02 <__fpcmp_parts_f+0x16>
     c00:	43 c0       	rjmp	.+134    	; 0xc88 <__fpcmp_parts_f+0x9c>
     c02:	94 30       	cpi	r25, 0x04	; 4
     c04:	51 f4       	brne	.+20     	; 0xc1a <__fpcmp_parts_f+0x2e>
     c06:	11 96       	adiw	r26, 0x01	; 1
     c08:	1c 91       	ld	r17, X
     c0a:	84 30       	cpi	r24, 0x04	; 4
     c0c:	99 f5       	brne	.+102    	; 0xc74 <__fpcmp_parts_f+0x88>
     c0e:	81 81       	ldd	r24, Z+1	; 0x01
     c10:	68 2f       	mov	r22, r24
     c12:	70 e0       	ldi	r23, 0x00	; 0
     c14:	61 1b       	sub	r22, r17
     c16:	71 09       	sbc	r23, r1
     c18:	3f c0       	rjmp	.+126    	; 0xc98 <__fpcmp_parts_f+0xac>
     c1a:	84 30       	cpi	r24, 0x04	; 4
     c1c:	21 f0       	breq	.+8      	; 0xc26 <__fpcmp_parts_f+0x3a>
     c1e:	92 30       	cpi	r25, 0x02	; 2
     c20:	31 f4       	brne	.+12     	; 0xc2e <__fpcmp_parts_f+0x42>
     c22:	82 30       	cpi	r24, 0x02	; 2
     c24:	b9 f1       	breq	.+110    	; 0xc94 <__fpcmp_parts_f+0xa8>
     c26:	81 81       	ldd	r24, Z+1	; 0x01
     c28:	88 23       	and	r24, r24
     c2a:	89 f1       	breq	.+98     	; 0xc8e <__fpcmp_parts_f+0xa2>
     c2c:	2d c0       	rjmp	.+90     	; 0xc88 <__fpcmp_parts_f+0x9c>
     c2e:	11 96       	adiw	r26, 0x01	; 1
     c30:	1c 91       	ld	r17, X
     c32:	11 97       	sbiw	r26, 0x01	; 1
     c34:	82 30       	cpi	r24, 0x02	; 2
     c36:	f1 f0       	breq	.+60     	; 0xc74 <__fpcmp_parts_f+0x88>
     c38:	81 81       	ldd	r24, Z+1	; 0x01
     c3a:	18 17       	cp	r17, r24
     c3c:	d9 f4       	brne	.+54     	; 0xc74 <__fpcmp_parts_f+0x88>
     c3e:	12 96       	adiw	r26, 0x02	; 2
     c40:	2d 91       	ld	r18, X+
     c42:	3c 91       	ld	r19, X
     c44:	13 97       	sbiw	r26, 0x03	; 3
     c46:	82 81       	ldd	r24, Z+2	; 0x02
     c48:	93 81       	ldd	r25, Z+3	; 0x03
     c4a:	82 17       	cp	r24, r18
     c4c:	93 07       	cpc	r25, r19
     c4e:	94 f0       	brlt	.+36     	; 0xc74 <__fpcmp_parts_f+0x88>
     c50:	28 17       	cp	r18, r24
     c52:	39 07       	cpc	r19, r25
     c54:	bc f0       	brlt	.+46     	; 0xc84 <__fpcmp_parts_f+0x98>
     c56:	14 96       	adiw	r26, 0x04	; 4
     c58:	8d 91       	ld	r24, X+
     c5a:	9d 91       	ld	r25, X+
     c5c:	0d 90       	ld	r0, X+
     c5e:	bc 91       	ld	r27, X
     c60:	a0 2d       	mov	r26, r0
     c62:	24 81       	ldd	r18, Z+4	; 0x04
     c64:	35 81       	ldd	r19, Z+5	; 0x05
     c66:	46 81       	ldd	r20, Z+6	; 0x06
     c68:	57 81       	ldd	r21, Z+7	; 0x07
     c6a:	28 17       	cp	r18, r24
     c6c:	39 07       	cpc	r19, r25
     c6e:	4a 07       	cpc	r20, r26
     c70:	5b 07       	cpc	r21, r27
     c72:	18 f4       	brcc	.+6      	; 0xc7a <__fpcmp_parts_f+0x8e>
     c74:	11 23       	and	r17, r17
     c76:	41 f0       	breq	.+16     	; 0xc88 <__fpcmp_parts_f+0x9c>
     c78:	0a c0       	rjmp	.+20     	; 0xc8e <__fpcmp_parts_f+0xa2>
     c7a:	82 17       	cp	r24, r18
     c7c:	93 07       	cpc	r25, r19
     c7e:	a4 07       	cpc	r26, r20
     c80:	b5 07       	cpc	r27, r21
     c82:	40 f4       	brcc	.+16     	; 0xc94 <__fpcmp_parts_f+0xa8>
     c84:	11 23       	and	r17, r17
     c86:	19 f0       	breq	.+6      	; 0xc8e <__fpcmp_parts_f+0xa2>
     c88:	61 e0       	ldi	r22, 0x01	; 1
     c8a:	70 e0       	ldi	r23, 0x00	; 0
     c8c:	05 c0       	rjmp	.+10     	; 0xc98 <__fpcmp_parts_f+0xac>
     c8e:	6f ef       	ldi	r22, 0xFF	; 255
     c90:	7f ef       	ldi	r23, 0xFF	; 255
     c92:	02 c0       	rjmp	.+4      	; 0xc98 <__fpcmp_parts_f+0xac>
     c94:	60 e0       	ldi	r22, 0x00	; 0
     c96:	70 e0       	ldi	r23, 0x00	; 0
     c98:	cb 01       	movw	r24, r22
     c9a:	1f 91       	pop	r17
     c9c:	08 95       	ret

00000c9e <ADC_vidInit>:




void ADC_vidInit()
{
     c9e:	df 93       	push	r29
     ca0:	cf 93       	push	r28
     ca2:	cd b7       	in	r28, 0x3d	; 61
     ca4:	de b7       	in	r29, 0x3e	; 62
		/*	Enabling ADC*/
	SET_BIT(ADCSRA,ADEN);
     ca6:	a6 e2       	ldi	r26, 0x26	; 38
     ca8:	b0 e0       	ldi	r27, 0x00	; 0
     caa:	e6 e2       	ldi	r30, 0x26	; 38
     cac:	f0 e0       	ldi	r31, 0x00	; 0
     cae:	80 81       	ld	r24, Z
     cb0:	80 68       	ori	r24, 0x80	; 128
     cb2:	8c 93       	st	X, r24

		/*Voltage Referrence Selection*/
	SET_BIT(ADMUX,REFS0);
     cb4:	a7 e2       	ldi	r26, 0x27	; 39
     cb6:	b0 e0       	ldi	r27, 0x00	; 0
     cb8:	e7 e2       	ldi	r30, 0x27	; 39
     cba:	f0 e0       	ldi	r31, 0x00	; 0
     cbc:	80 81       	ld	r24, Z
     cbe:	80 64       	ori	r24, 0x40	; 64
     cc0:	8c 93       	st	X, r24
	CLEAR_BIT(ADMUX,REFS1);
     cc2:	a7 e2       	ldi	r26, 0x27	; 39
     cc4:	b0 e0       	ldi	r27, 0x00	; 0
     cc6:	e7 e2       	ldi	r30, 0x27	; 39
     cc8:	f0 e0       	ldi	r31, 0x00	; 0
     cca:	80 81       	ld	r24, Z
     ccc:	8f 77       	andi	r24, 0x7F	; 127
     cce:	8c 93       	st	X, r24

		/*Prescaller selection*/
			/*For 13 Clock Cycle of ADC */
	ADCSRA |= (1<<ADPS2)|(1<<ADPS1)|(1<<ADPS0);
     cd0:	a6 e2       	ldi	r26, 0x26	; 38
     cd2:	b0 e0       	ldi	r27, 0x00	; 0
     cd4:	e6 e2       	ldi	r30, 0x26	; 38
     cd6:	f0 e0       	ldi	r31, 0x00	; 0
     cd8:	80 81       	ld	r24, Z
     cda:	87 60       	ori	r24, 0x07	; 7
     cdc:	8c 93       	st	X, r24

		/*Adjustment*/
			/*Left Adjustment*/
	SET_BIT(ADMUX,ADLAR);
     cde:	a7 e2       	ldi	r26, 0x27	; 39
     ce0:	b0 e0       	ldi	r27, 0x00	; 0
     ce2:	e7 e2       	ldi	r30, 0x27	; 39
     ce4:	f0 e0       	ldi	r31, 0x00	; 0
     ce6:	80 81       	ld	r24, Z
     ce8:	80 62       	ori	r24, 0x20	; 32
     cea:	8c 93       	st	X, r24


}
     cec:	cf 91       	pop	r28
     cee:	df 91       	pop	r29
     cf0:	08 95       	ret

00000cf2 <ADC_u8Read>:


u16 ADC_u8Read(u8 u8ChannelCpy)
{
     cf2:	df 93       	push	r29
     cf4:	cf 93       	push	r28
     cf6:	0f 92       	push	r0
     cf8:	cd b7       	in	r28, 0x3d	; 61
     cfa:	de b7       	in	r29, 0x3e	; 62
     cfc:	89 83       	std	Y+1, r24	; 0x01

	ADMUX &= 0xE0 ;
     cfe:	a7 e2       	ldi	r26, 0x27	; 39
     d00:	b0 e0       	ldi	r27, 0x00	; 0
     d02:	e7 e2       	ldi	r30, 0x27	; 39
     d04:	f0 e0       	ldi	r31, 0x00	; 0
     d06:	80 81       	ld	r24, Z
     d08:	80 7e       	andi	r24, 0xE0	; 224
     d0a:	8c 93       	st	X, r24
	ADMUX |= u8ChannelCpy & 0x07 ;
     d0c:	a7 e2       	ldi	r26, 0x27	; 39
     d0e:	b0 e0       	ldi	r27, 0x00	; 0
     d10:	e7 e2       	ldi	r30, 0x27	; 39
     d12:	f0 e0       	ldi	r31, 0x00	; 0
     d14:	80 81       	ld	r24, Z
     d16:	98 2f       	mov	r25, r24
     d18:	89 81       	ldd	r24, Y+1	; 0x01
     d1a:	87 70       	andi	r24, 0x07	; 7
     d1c:	89 2b       	or	r24, r25
     d1e:	8c 93       	st	X, r24

		/*Start Conversion*/
	SET_BIT(ADCSRA,ADSC);
     d20:	a6 e2       	ldi	r26, 0x26	; 38
     d22:	b0 e0       	ldi	r27, 0x00	; 0
     d24:	e6 e2       	ldi	r30, 0x26	; 38
     d26:	f0 e0       	ldi	r31, 0x00	; 0
     d28:	80 81       	ld	r24, Z
     d2a:	80 64       	ori	r24, 0x40	; 64
     d2c:	8c 93       	st	X, r24

		/*polling until data is ready*/
	while(GET_BIT(ADCSRA,ADIF)==0);
     d2e:	e6 e2       	ldi	r30, 0x26	; 38
     d30:	f0 e0       	ldi	r31, 0x00	; 0
     d32:	80 81       	ld	r24, Z
     d34:	82 95       	swap	r24
     d36:	8f 70       	andi	r24, 0x0F	; 15
     d38:	88 2f       	mov	r24, r24
     d3a:	90 e0       	ldi	r25, 0x00	; 0
     d3c:	81 70       	andi	r24, 0x01	; 1
     d3e:	90 70       	andi	r25, 0x00	; 0
     d40:	00 97       	sbiw	r24, 0x00	; 0
     d42:	a9 f3       	breq	.-22     	; 0xd2e <ADC_u8Read+0x3c>
		/*clear the flag*/
	SET_BIT(ADCSRA,ADIF);
     d44:	a6 e2       	ldi	r26, 0x26	; 38
     d46:	b0 e0       	ldi	r27, 0x00	; 0
     d48:	e6 e2       	ldi	r30, 0x26	; 38
     d4a:	f0 e0       	ldi	r31, 0x00	; 0
     d4c:	80 81       	ld	r24, Z
     d4e:	80 61       	ori	r24, 0x10	; 16
     d50:	8c 93       	st	X, r24
	return ADC ;
     d52:	e4 e2       	ldi	r30, 0x24	; 36
     d54:	f0 e0       	ldi	r31, 0x00	; 0
     d56:	80 81       	ld	r24, Z
     d58:	91 81       	ldd	r25, Z+1	; 0x01
}
     d5a:	0f 90       	pop	r0
     d5c:	cf 91       	pop	r28
     d5e:	df 91       	pop	r29
     d60:	08 95       	ret

00000d62 <DIO_enuInt>:
/* determine the dirction of all pins				*/
/****************************************************/


Error_Status DIO_enuInt(void)
{
     d62:	df 93       	push	r29
     d64:	cf 93       	push	r28
     d66:	0f 92       	push	r0
     d68:	cd b7       	in	r28, 0x3d	; 61
     d6a:	de b7       	in	r29, 0x3e	; 62
	Error_Status status = OK;
     d6c:	19 82       	std	Y+1, r1	; 0x01
	DDRA=	conc(DIO_u8PINDIR_7,DIO_u8PINDIR_6,DIO_u8PINDIR_5,DIO_u8PINDIR_4,DIO_u8PINDIR_3,DIO_u8PINDIR_2,DIO_u8PINDIR_1,DIO_u8PINDIR_0);
     d6e:	ea e3       	ldi	r30, 0x3A	; 58
     d70:	f0 e0       	ldi	r31, 0x00	; 0
     d72:	8f ef       	ldi	r24, 0xFF	; 255
     d74:	80 83       	st	Z, r24
	DDRB=	conc(DIO_u8PINDIR_15,DIO_u8PINDIR_14,DIO_u8PINDIR_13,DIO_u8PINDIR_12,DIO_u8PINDIR_11,DIO_u8PINDIR_10,DIO_u8PINDIR_9,DIO_u8PINDIR_8);
     d76:	e7 e3       	ldi	r30, 0x37	; 55
     d78:	f0 e0       	ldi	r31, 0x00	; 0
     d7a:	10 82       	st	Z, r1
	DDRC=	conc(DIO_u8PINDIR_23,DIO_u8PINDIR_22,DIO_u8PINDIR_21,DIO_u8PINDIR_20,DIO_u8PINDIR_19,DIO_u8PINDIR_18,DIO_u8PINDIR_17,DIO_u8PINDIR_16);
     d7c:	e4 e3       	ldi	r30, 0x34	; 52
     d7e:	f0 e0       	ldi	r31, 0x00	; 0
     d80:	8f ef       	ldi	r24, 0xFF	; 255
     d82:	80 83       	st	Z, r24
	DDRD=	conc(DIO_u8PINDIR_31,DIO_u8PINDIR_30,DIO_u8PINDIR_29,DIO_u8PINDIR_28,DIO_u8PINDIR_27,DIO_u8PINDIR_26,DIO_u8PINDIR_25,DIO_u8PINDIR_24);	
     d84:	e1 e3       	ldi	r30, 0x31	; 49
     d86:	f0 e0       	ldi	r31, 0x00	; 0
     d88:	10 82       	st	Z, r1
	return status ;
     d8a:	89 81       	ldd	r24, Y+1	; 0x01
	}
     d8c:	0f 90       	pop	r0
     d8e:	cf 91       	pop	r28
     d90:	df 91       	pop	r29
     d92:	08 95       	ret

00000d94 <DIO_enuSetPinValue>:
/*			 u8ValueCpy value mean DIO_u8HIGH 		*/
/*							or DIO_u8LOW			*/
/****************************************************/

Error_Status DIO_enuSetPinValue(u8 u8PinNbCpy ,u8 u8ValueCpy)
{
     d94:	df 93       	push	r29
     d96:	cf 93       	push	r28
     d98:	00 d0       	rcall	.+0      	; 0xd9a <DIO_enuSetPinValue+0x6>
     d9a:	0f 92       	push	r0
     d9c:	cd b7       	in	r28, 0x3d	; 61
     d9e:	de b7       	in	r29, 0x3e	; 62
     da0:	8a 83       	std	Y+2, r24	; 0x02
     da2:	6b 83       	std	Y+3, r22	; 0x03
	Error_Status Loc_enuStatus=OK;
     da4:	19 82       	std	Y+1, r1	; 0x01
	
	if(u8ValueCpy!=DIO_u8HIGH	&&	 u8ValueCpy!=DIO_u8LOW	)
     da6:	8b 81       	ldd	r24, Y+3	; 0x03
     da8:	81 30       	cpi	r24, 0x01	; 1
     daa:	31 f0       	breq	.+12     	; 0xdb8 <DIO_enuSetPinValue+0x24>
     dac:	8b 81       	ldd	r24, Y+3	; 0x03
     dae:	88 23       	and	r24, r24
     db0:	19 f0       	breq	.+6      	; 0xdb8 <DIO_enuSetPinValue+0x24>
	{
		Loc_enuStatus = NOK;
     db2:	84 e0       	ldi	r24, 0x04	; 4
     db4:	89 83       	std	Y+1, r24	; 0x01
     db6:	c7 c0       	rjmp	.+398    	; 0xf46 <DIO_enuSetPinValue+0x1b2>
	}
	else if(u8PinNbCpy>DIO_u8PIN_31)
     db8:	8a 81       	ldd	r24, Y+2	; 0x02
     dba:	80 32       	cpi	r24, 0x20	; 32
     dbc:	18 f0       	brcs	.+6      	; 0xdc4 <DIO_enuSetPinValue+0x30>
	{
		Loc_enuStatus = INDEX_OUT_OF_RANGE;
     dbe:	88 e0       	ldi	r24, 0x08	; 8
     dc0:	89 83       	std	Y+1, r24	; 0x01
     dc2:	c1 c0       	rjmp	.+386    	; 0xf46 <DIO_enuSetPinValue+0x1b2>
	}
	else if(u8PinNbCpy<=DIO_u8PIN_7)
     dc4:	8a 81       	ldd	r24, Y+2	; 0x02
     dc6:	88 30       	cpi	r24, 0x08	; 8
     dc8:	60 f5       	brcc	.+88     	; 0xe22 <DIO_enuSetPinValue+0x8e>
	{
		u8PinNbCpy-= DIO_u8_PORTA_START;
	//	u8PinNbCpy%= DIO_u8_PORT_SIZE;
		if(u8ValueCpy==DIO_u8LOW)
     dca:	8b 81       	ldd	r24, Y+3	; 0x03
     dcc:	88 23       	and	r24, r24
     dce:	a9 f4       	brne	.+42     	; 0xdfa <DIO_enuSetPinValue+0x66>
		{
			CLEAR_BIT(PORTA,u8PinNbCpy);
     dd0:	ab e3       	ldi	r26, 0x3B	; 59
     dd2:	b0 e0       	ldi	r27, 0x00	; 0
     dd4:	eb e3       	ldi	r30, 0x3B	; 59
     dd6:	f0 e0       	ldi	r31, 0x00	; 0
     dd8:	80 81       	ld	r24, Z
     dda:	48 2f       	mov	r20, r24
     ddc:	8a 81       	ldd	r24, Y+2	; 0x02
     dde:	28 2f       	mov	r18, r24
     de0:	30 e0       	ldi	r19, 0x00	; 0
     de2:	81 e0       	ldi	r24, 0x01	; 1
     de4:	90 e0       	ldi	r25, 0x00	; 0
     de6:	02 2e       	mov	r0, r18
     de8:	02 c0       	rjmp	.+4      	; 0xdee <DIO_enuSetPinValue+0x5a>
     dea:	88 0f       	add	r24, r24
     dec:	99 1f       	adc	r25, r25
     dee:	0a 94       	dec	r0
     df0:	e2 f7       	brpl	.-8      	; 0xdea <DIO_enuSetPinValue+0x56>
     df2:	80 95       	com	r24
     df4:	84 23       	and	r24, r20
     df6:	8c 93       	st	X, r24
     df8:	a6 c0       	rjmp	.+332    	; 0xf46 <DIO_enuSetPinValue+0x1b2>
		}
		else
		{
			SET_BIT(PORTA,u8PinNbCpy);
     dfa:	ab e3       	ldi	r26, 0x3B	; 59
     dfc:	b0 e0       	ldi	r27, 0x00	; 0
     dfe:	eb e3       	ldi	r30, 0x3B	; 59
     e00:	f0 e0       	ldi	r31, 0x00	; 0
     e02:	80 81       	ld	r24, Z
     e04:	48 2f       	mov	r20, r24
     e06:	8a 81       	ldd	r24, Y+2	; 0x02
     e08:	28 2f       	mov	r18, r24
     e0a:	30 e0       	ldi	r19, 0x00	; 0
     e0c:	81 e0       	ldi	r24, 0x01	; 1
     e0e:	90 e0       	ldi	r25, 0x00	; 0
     e10:	02 2e       	mov	r0, r18
     e12:	02 c0       	rjmp	.+4      	; 0xe18 <DIO_enuSetPinValue+0x84>
     e14:	88 0f       	add	r24, r24
     e16:	99 1f       	adc	r25, r25
     e18:	0a 94       	dec	r0
     e1a:	e2 f7       	brpl	.-8      	; 0xe14 <DIO_enuSetPinValue+0x80>
     e1c:	84 2b       	or	r24, r20
     e1e:	8c 93       	st	X, r24
     e20:	92 c0       	rjmp	.+292    	; 0xf46 <DIO_enuSetPinValue+0x1b2>
		}
	}
	else if (u8PinNbCpy<=DIO_u8PIN_15)
     e22:	8a 81       	ldd	r24, Y+2	; 0x02
     e24:	80 31       	cpi	r24, 0x10	; 16
     e26:	78 f5       	brcc	.+94     	; 0xe86 <DIO_enuSetPinValue+0xf2>
	{	
		u8PinNbCpy-= DIO_u8_PORTB_START;
     e28:	8a 81       	ldd	r24, Y+2	; 0x02
     e2a:	88 50       	subi	r24, 0x08	; 8
     e2c:	8a 83       	std	Y+2, r24	; 0x02
		if(u8ValueCpy==DIO_u8LOW)
     e2e:	8b 81       	ldd	r24, Y+3	; 0x03
     e30:	88 23       	and	r24, r24
     e32:	a9 f4       	brne	.+42     	; 0xe5e <DIO_enuSetPinValue+0xca>
		{
			CLEAR_BIT(PORTB,u8PinNbCpy);
     e34:	a8 e3       	ldi	r26, 0x38	; 56
     e36:	b0 e0       	ldi	r27, 0x00	; 0
     e38:	e8 e3       	ldi	r30, 0x38	; 56
     e3a:	f0 e0       	ldi	r31, 0x00	; 0
     e3c:	80 81       	ld	r24, Z
     e3e:	48 2f       	mov	r20, r24
     e40:	8a 81       	ldd	r24, Y+2	; 0x02
     e42:	28 2f       	mov	r18, r24
     e44:	30 e0       	ldi	r19, 0x00	; 0
     e46:	81 e0       	ldi	r24, 0x01	; 1
     e48:	90 e0       	ldi	r25, 0x00	; 0
     e4a:	02 2e       	mov	r0, r18
     e4c:	02 c0       	rjmp	.+4      	; 0xe52 <DIO_enuSetPinValue+0xbe>
     e4e:	88 0f       	add	r24, r24
     e50:	99 1f       	adc	r25, r25
     e52:	0a 94       	dec	r0
     e54:	e2 f7       	brpl	.-8      	; 0xe4e <DIO_enuSetPinValue+0xba>
     e56:	80 95       	com	r24
     e58:	84 23       	and	r24, r20
     e5a:	8c 93       	st	X, r24
     e5c:	74 c0       	rjmp	.+232    	; 0xf46 <DIO_enuSetPinValue+0x1b2>
		}
		else
		{
			SET_BIT(PORTB,u8PinNbCpy);
     e5e:	a8 e3       	ldi	r26, 0x38	; 56
     e60:	b0 e0       	ldi	r27, 0x00	; 0
     e62:	e8 e3       	ldi	r30, 0x38	; 56
     e64:	f0 e0       	ldi	r31, 0x00	; 0
     e66:	80 81       	ld	r24, Z
     e68:	48 2f       	mov	r20, r24
     e6a:	8a 81       	ldd	r24, Y+2	; 0x02
     e6c:	28 2f       	mov	r18, r24
     e6e:	30 e0       	ldi	r19, 0x00	; 0
     e70:	81 e0       	ldi	r24, 0x01	; 1
     e72:	90 e0       	ldi	r25, 0x00	; 0
     e74:	02 2e       	mov	r0, r18
     e76:	02 c0       	rjmp	.+4      	; 0xe7c <DIO_enuSetPinValue+0xe8>
     e78:	88 0f       	add	r24, r24
     e7a:	99 1f       	adc	r25, r25
     e7c:	0a 94       	dec	r0
     e7e:	e2 f7       	brpl	.-8      	; 0xe78 <DIO_enuSetPinValue+0xe4>
     e80:	84 2b       	or	r24, r20
     e82:	8c 93       	st	X, r24
     e84:	60 c0       	rjmp	.+192    	; 0xf46 <DIO_enuSetPinValue+0x1b2>
		}
	}
	else if (u8PinNbCpy<=DIO_u8PIN_23)
     e86:	8a 81       	ldd	r24, Y+2	; 0x02
     e88:	88 31       	cpi	r24, 0x18	; 24
     e8a:	78 f5       	brcc	.+94     	; 0xeea <DIO_enuSetPinValue+0x156>
	{
		u8PinNbCpy-= DIO_u8_PORTC_START;
     e8c:	8a 81       	ldd	r24, Y+2	; 0x02
     e8e:	80 51       	subi	r24, 0x10	; 16
     e90:	8a 83       	std	Y+2, r24	; 0x02
		if(u8ValueCpy==DIO_u8LOW)
     e92:	8b 81       	ldd	r24, Y+3	; 0x03
     e94:	88 23       	and	r24, r24
     e96:	a9 f4       	brne	.+42     	; 0xec2 <DIO_enuSetPinValue+0x12e>
		{
			CLEAR_BIT(PORTC,u8PinNbCpy);
     e98:	a5 e3       	ldi	r26, 0x35	; 53
     e9a:	b0 e0       	ldi	r27, 0x00	; 0
     e9c:	e5 e3       	ldi	r30, 0x35	; 53
     e9e:	f0 e0       	ldi	r31, 0x00	; 0
     ea0:	80 81       	ld	r24, Z
     ea2:	48 2f       	mov	r20, r24
     ea4:	8a 81       	ldd	r24, Y+2	; 0x02
     ea6:	28 2f       	mov	r18, r24
     ea8:	30 e0       	ldi	r19, 0x00	; 0
     eaa:	81 e0       	ldi	r24, 0x01	; 1
     eac:	90 e0       	ldi	r25, 0x00	; 0
     eae:	02 2e       	mov	r0, r18
     eb0:	02 c0       	rjmp	.+4      	; 0xeb6 <DIO_enuSetPinValue+0x122>
     eb2:	88 0f       	add	r24, r24
     eb4:	99 1f       	adc	r25, r25
     eb6:	0a 94       	dec	r0
     eb8:	e2 f7       	brpl	.-8      	; 0xeb2 <DIO_enuSetPinValue+0x11e>
     eba:	80 95       	com	r24
     ebc:	84 23       	and	r24, r20
     ebe:	8c 93       	st	X, r24
     ec0:	42 c0       	rjmp	.+132    	; 0xf46 <DIO_enuSetPinValue+0x1b2>
		}
		else
		{
			SET_BIT(PORTC,u8PinNbCpy);
     ec2:	a5 e3       	ldi	r26, 0x35	; 53
     ec4:	b0 e0       	ldi	r27, 0x00	; 0
     ec6:	e5 e3       	ldi	r30, 0x35	; 53
     ec8:	f0 e0       	ldi	r31, 0x00	; 0
     eca:	80 81       	ld	r24, Z
     ecc:	48 2f       	mov	r20, r24
     ece:	8a 81       	ldd	r24, Y+2	; 0x02
     ed0:	28 2f       	mov	r18, r24
     ed2:	30 e0       	ldi	r19, 0x00	; 0
     ed4:	81 e0       	ldi	r24, 0x01	; 1
     ed6:	90 e0       	ldi	r25, 0x00	; 0
     ed8:	02 2e       	mov	r0, r18
     eda:	02 c0       	rjmp	.+4      	; 0xee0 <DIO_enuSetPinValue+0x14c>
     edc:	88 0f       	add	r24, r24
     ede:	99 1f       	adc	r25, r25
     ee0:	0a 94       	dec	r0
     ee2:	e2 f7       	brpl	.-8      	; 0xedc <DIO_enuSetPinValue+0x148>
     ee4:	84 2b       	or	r24, r20
     ee6:	8c 93       	st	X, r24
     ee8:	2e c0       	rjmp	.+92     	; 0xf46 <DIO_enuSetPinValue+0x1b2>
		}
	}
	//else if (DIO_u8PIN_24<=u8PinNbCpy&&u8PinNbCpy<=DIO_u8PIN_31)
	else
	{
		u8PinNbCpy-= DIO_u8_PORTD_START;
     eea:	8a 81       	ldd	r24, Y+2	; 0x02
     eec:	88 51       	subi	r24, 0x18	; 24
     eee:	8a 83       	std	Y+2, r24	; 0x02
		if(u8ValueCpy==DIO_u8LOW)
     ef0:	8b 81       	ldd	r24, Y+3	; 0x03
     ef2:	88 23       	and	r24, r24
     ef4:	a9 f4       	brne	.+42     	; 0xf20 <DIO_enuSetPinValue+0x18c>
		{
			CLEAR_BIT(PORTD,u8PinNbCpy);
     ef6:	a2 e3       	ldi	r26, 0x32	; 50
     ef8:	b0 e0       	ldi	r27, 0x00	; 0
     efa:	e2 e3       	ldi	r30, 0x32	; 50
     efc:	f0 e0       	ldi	r31, 0x00	; 0
     efe:	80 81       	ld	r24, Z
     f00:	48 2f       	mov	r20, r24
     f02:	8a 81       	ldd	r24, Y+2	; 0x02
     f04:	28 2f       	mov	r18, r24
     f06:	30 e0       	ldi	r19, 0x00	; 0
     f08:	81 e0       	ldi	r24, 0x01	; 1
     f0a:	90 e0       	ldi	r25, 0x00	; 0
     f0c:	02 2e       	mov	r0, r18
     f0e:	02 c0       	rjmp	.+4      	; 0xf14 <DIO_enuSetPinValue+0x180>
     f10:	88 0f       	add	r24, r24
     f12:	99 1f       	adc	r25, r25
     f14:	0a 94       	dec	r0
     f16:	e2 f7       	brpl	.-8      	; 0xf10 <DIO_enuSetPinValue+0x17c>
     f18:	80 95       	com	r24
     f1a:	84 23       	and	r24, r20
     f1c:	8c 93       	st	X, r24
     f1e:	13 c0       	rjmp	.+38     	; 0xf46 <DIO_enuSetPinValue+0x1b2>
		}
		else
		{
			SET_BIT(PORTD,u8PinNbCpy);
     f20:	a2 e3       	ldi	r26, 0x32	; 50
     f22:	b0 e0       	ldi	r27, 0x00	; 0
     f24:	e2 e3       	ldi	r30, 0x32	; 50
     f26:	f0 e0       	ldi	r31, 0x00	; 0
     f28:	80 81       	ld	r24, Z
     f2a:	48 2f       	mov	r20, r24
     f2c:	8a 81       	ldd	r24, Y+2	; 0x02
     f2e:	28 2f       	mov	r18, r24
     f30:	30 e0       	ldi	r19, 0x00	; 0
     f32:	81 e0       	ldi	r24, 0x01	; 1
     f34:	90 e0       	ldi	r25, 0x00	; 0
     f36:	02 2e       	mov	r0, r18
     f38:	02 c0       	rjmp	.+4      	; 0xf3e <DIO_enuSetPinValue+0x1aa>
     f3a:	88 0f       	add	r24, r24
     f3c:	99 1f       	adc	r25, r25
     f3e:	0a 94       	dec	r0
     f40:	e2 f7       	brpl	.-8      	; 0xf3a <DIO_enuSetPinValue+0x1a6>
     f42:	84 2b       	or	r24, r20
     f44:	8c 93       	st	X, r24
		}
	}
	return Loc_enuStatus	;
     f46:	89 81       	ldd	r24, Y+1	; 0x01
}
     f48:	0f 90       	pop	r0
     f4a:	0f 90       	pop	r0
     f4c:	0f 90       	pop	r0
     f4e:	cf 91       	pop	r28
     f50:	df 91       	pop	r29
     f52:	08 95       	ret

00000f54 <DIO_enuGetPinValue>:
/** Inputs : u8PinNbCpy number of pins foom 0 to 31	*/
/** Output : it return the pin Value 				*/
/****************************************************/

Error_Status DIO_enuGetPinValue(u8 u8PinNbCpy,u8*pu8PinValueCpy)
{	
     f54:	df 93       	push	r29
     f56:	cf 93       	push	r28
     f58:	00 d0       	rcall	.+0      	; 0xf5a <DIO_enuGetPinValue+0x6>
     f5a:	00 d0       	rcall	.+0      	; 0xf5c <DIO_enuGetPinValue+0x8>
     f5c:	cd b7       	in	r28, 0x3d	; 61
     f5e:	de b7       	in	r29, 0x3e	; 62
     f60:	8a 83       	std	Y+2, r24	; 0x02
     f62:	7c 83       	std	Y+4, r23	; 0x04
     f64:	6b 83       	std	Y+3, r22	; 0x03
	Error_Status Loc_enuStatus = OK ;
     f66:	19 82       	std	Y+1, r1	; 0x01
	if(u8PinNbCpy>DIO_u8PIN_31)
     f68:	8a 81       	ldd	r24, Y+2	; 0x02
     f6a:	80 32       	cpi	r24, 0x20	; 32
     f6c:	18 f0       	brcs	.+6      	; 0xf74 <DIO_enuGetPinValue+0x20>
	{
		Loc_enuStatus=INDEX_OUT_OF_RANGE;
     f6e:	88 e0       	ldi	r24, 0x08	; 8
     f70:	89 83       	std	Y+1, r24	; 0x01
     f72:	06 c0       	rjmp	.+12     	; 0xf80 <DIO_enuGetPinValue+0x2c>
	}
	else if(pu8PinValueCpy==NULL)
     f74:	8b 81       	ldd	r24, Y+3	; 0x03
     f76:	9c 81       	ldd	r25, Y+4	; 0x04
     f78:	00 97       	sbiw	r24, 0x00	; 0
     f7a:	11 f4       	brne	.+4      	; 0xf80 <DIO_enuGetPinValue+0x2c>
	{
		Loc_enuStatus=NULL_POINTRE;
     f7c:	80 e1       	ldi	r24, 0x10	; 16
     f7e:	89 83       	std	Y+1, r24	; 0x01
	}
	if(u8PinNbCpy<=DIO_u8PIN_7)
     f80:	8a 81       	ldd	r24, Y+2	; 0x02
     f82:	88 30       	cpi	r24, 0x08	; 8
     f84:	a0 f4       	brcc	.+40     	; 0xfae <DIO_enuGetPinValue+0x5a>
	{
		u8PinNbCpy-= DIO_u8_PORTA_START;
		*pu8PinValueCpy = GET_BIT(PINA,u8PinNbCpy);
     f86:	e9 e3       	ldi	r30, 0x39	; 57
     f88:	f0 e0       	ldi	r31, 0x00	; 0
     f8a:	80 81       	ld	r24, Z
     f8c:	28 2f       	mov	r18, r24
     f8e:	30 e0       	ldi	r19, 0x00	; 0
     f90:	8a 81       	ldd	r24, Y+2	; 0x02
     f92:	88 2f       	mov	r24, r24
     f94:	90 e0       	ldi	r25, 0x00	; 0
     f96:	a9 01       	movw	r20, r18
     f98:	02 c0       	rjmp	.+4      	; 0xf9e <DIO_enuGetPinValue+0x4a>
     f9a:	55 95       	asr	r21
     f9c:	47 95       	ror	r20
     f9e:	8a 95       	dec	r24
     fa0:	e2 f7       	brpl	.-8      	; 0xf9a <DIO_enuGetPinValue+0x46>
     fa2:	ca 01       	movw	r24, r20
     fa4:	81 70       	andi	r24, 0x01	; 1
     fa6:	eb 81       	ldd	r30, Y+3	; 0x03
     fa8:	fc 81       	ldd	r31, Y+4	; 0x04
     faa:	80 83       	st	Z, r24
     fac:	4a c0       	rjmp	.+148    	; 0x1042 <DIO_enuGetPinValue+0xee>
	} 
	else if(u8PinNbCpy<=DIO_u8PIN_15)
     fae:	8a 81       	ldd	r24, Y+2	; 0x02
     fb0:	80 31       	cpi	r24, 0x10	; 16
     fb2:	b8 f4       	brcc	.+46     	; 0xfe2 <DIO_enuGetPinValue+0x8e>
	{
		u8PinNbCpy-= DIO_u8_PORTB_START;
     fb4:	8a 81       	ldd	r24, Y+2	; 0x02
     fb6:	88 50       	subi	r24, 0x08	; 8
     fb8:	8a 83       	std	Y+2, r24	; 0x02
		*pu8PinValueCpy = GET_BIT(PINB,u8PinNbCpy);
     fba:	e6 e3       	ldi	r30, 0x36	; 54
     fbc:	f0 e0       	ldi	r31, 0x00	; 0
     fbe:	80 81       	ld	r24, Z
     fc0:	28 2f       	mov	r18, r24
     fc2:	30 e0       	ldi	r19, 0x00	; 0
     fc4:	8a 81       	ldd	r24, Y+2	; 0x02
     fc6:	88 2f       	mov	r24, r24
     fc8:	90 e0       	ldi	r25, 0x00	; 0
     fca:	a9 01       	movw	r20, r18
     fcc:	02 c0       	rjmp	.+4      	; 0xfd2 <DIO_enuGetPinValue+0x7e>
     fce:	55 95       	asr	r21
     fd0:	47 95       	ror	r20
     fd2:	8a 95       	dec	r24
     fd4:	e2 f7       	brpl	.-8      	; 0xfce <DIO_enuGetPinValue+0x7a>
     fd6:	ca 01       	movw	r24, r20
     fd8:	81 70       	andi	r24, 0x01	; 1
     fda:	eb 81       	ldd	r30, Y+3	; 0x03
     fdc:	fc 81       	ldd	r31, Y+4	; 0x04
     fde:	80 83       	st	Z, r24
     fe0:	30 c0       	rjmp	.+96     	; 0x1042 <DIO_enuGetPinValue+0xee>
	}
	else if(u8PinNbCpy<=DIO_u8PIN_23)
     fe2:	8a 81       	ldd	r24, Y+2	; 0x02
     fe4:	88 31       	cpi	r24, 0x18	; 24
     fe6:	b8 f4       	brcc	.+46     	; 0x1016 <DIO_enuGetPinValue+0xc2>
	{
		u8PinNbCpy-= DIO_u8_PORTC_START;
     fe8:	8a 81       	ldd	r24, Y+2	; 0x02
     fea:	80 51       	subi	r24, 0x10	; 16
     fec:	8a 83       	std	Y+2, r24	; 0x02
		*pu8PinValueCpy = GET_BIT(PINC,u8PinNbCpy);
     fee:	e3 e3       	ldi	r30, 0x33	; 51
     ff0:	f0 e0       	ldi	r31, 0x00	; 0
     ff2:	80 81       	ld	r24, Z
     ff4:	28 2f       	mov	r18, r24
     ff6:	30 e0       	ldi	r19, 0x00	; 0
     ff8:	8a 81       	ldd	r24, Y+2	; 0x02
     ffa:	88 2f       	mov	r24, r24
     ffc:	90 e0       	ldi	r25, 0x00	; 0
     ffe:	a9 01       	movw	r20, r18
    1000:	02 c0       	rjmp	.+4      	; 0x1006 <DIO_enuGetPinValue+0xb2>
    1002:	55 95       	asr	r21
    1004:	47 95       	ror	r20
    1006:	8a 95       	dec	r24
    1008:	e2 f7       	brpl	.-8      	; 0x1002 <DIO_enuGetPinValue+0xae>
    100a:	ca 01       	movw	r24, r20
    100c:	81 70       	andi	r24, 0x01	; 1
    100e:	eb 81       	ldd	r30, Y+3	; 0x03
    1010:	fc 81       	ldd	r31, Y+4	; 0x04
    1012:	80 83       	st	Z, r24
    1014:	16 c0       	rjmp	.+44     	; 0x1042 <DIO_enuGetPinValue+0xee>
	}
	//else if(DIO_u8PIN_24<=u8PinNbCpy&&u8PinNbCpy<=DIO_u8PIN_31)
	else
	{
		u8PinNbCpy-= DIO_u8_PORTD_START;
    1016:	8a 81       	ldd	r24, Y+2	; 0x02
    1018:	88 51       	subi	r24, 0x18	; 24
    101a:	8a 83       	std	Y+2, r24	; 0x02
		*pu8PinValueCpy = GET_BIT(PIND,u8PinNbCpy);
    101c:	e0 e3       	ldi	r30, 0x30	; 48
    101e:	f0 e0       	ldi	r31, 0x00	; 0
    1020:	80 81       	ld	r24, Z
    1022:	28 2f       	mov	r18, r24
    1024:	30 e0       	ldi	r19, 0x00	; 0
    1026:	8a 81       	ldd	r24, Y+2	; 0x02
    1028:	88 2f       	mov	r24, r24
    102a:	90 e0       	ldi	r25, 0x00	; 0
    102c:	a9 01       	movw	r20, r18
    102e:	02 c0       	rjmp	.+4      	; 0x1034 <DIO_enuGetPinValue+0xe0>
    1030:	55 95       	asr	r21
    1032:	47 95       	ror	r20
    1034:	8a 95       	dec	r24
    1036:	e2 f7       	brpl	.-8      	; 0x1030 <DIO_enuGetPinValue+0xdc>
    1038:	ca 01       	movw	r24, r20
    103a:	81 70       	andi	r24, 0x01	; 1
    103c:	eb 81       	ldd	r30, Y+3	; 0x03
    103e:	fc 81       	ldd	r31, Y+4	; 0x04
    1040:	80 83       	st	Z, r24
	}
	return Loc_enuStatus ;
    1042:	89 81       	ldd	r24, Y+1	; 0x01
}
    1044:	0f 90       	pop	r0
    1046:	0f 90       	pop	r0
    1048:	0f 90       	pop	r0
    104a:	0f 90       	pop	r0
    104c:	cf 91       	pop	r28
    104e:	df 91       	pop	r29
    1050:	08 95       	ret

00001052 <DIO_enuSetPinDirection>:
/** Inputs : u8PinNbCpy number of pins from 0 to 31	*/
/** Output : Error Status  							*/
/****************************************************/

Error_Status DIO_enuSetPinDirection(u8 u8PinNbCpy, u8 u8PinStateCpy)
{
    1052:	df 93       	push	r29
    1054:	cf 93       	push	r28
    1056:	00 d0       	rcall	.+0      	; 0x1058 <DIO_enuSetPinDirection+0x6>
    1058:	0f 92       	push	r0
    105a:	cd b7       	in	r28, 0x3d	; 61
    105c:	de b7       	in	r29, 0x3e	; 62
    105e:	8a 83       	std	Y+2, r24	; 0x02
    1060:	6b 83       	std	Y+3, r22	; 0x03
	Error_Status Loc_enuStatus = OK;
    1062:	19 82       	std	Y+1, r1	; 0x01
	if(u8PinStateCpy!=DIO_u8OUTPUT	&&	u8PinStateCpy!=DIO_u8INPUT)
    1064:	8b 81       	ldd	r24, Y+3	; 0x03
    1066:	81 30       	cpi	r24, 0x01	; 1
    1068:	31 f0       	breq	.+12     	; 0x1076 <DIO_enuSetPinDirection+0x24>
    106a:	8b 81       	ldd	r24, Y+3	; 0x03
    106c:	88 23       	and	r24, r24
    106e:	19 f0       	breq	.+6      	; 0x1076 <DIO_enuSetPinDirection+0x24>
	{
		Loc_enuStatus= NOK;
    1070:	84 e0       	ldi	r24, 0x04	; 4
    1072:	89 83       	std	Y+1, r24	; 0x01
    1074:	05 c0       	rjmp	.+10     	; 0x1080 <DIO_enuSetPinDirection+0x2e>
	}
	else if(u8PinNbCpy>DIO_u8PIN_31)
    1076:	8a 81       	ldd	r24, Y+2	; 0x02
    1078:	80 32       	cpi	r24, 0x20	; 32
    107a:	10 f0       	brcs	.+4      	; 0x1080 <DIO_enuSetPinDirection+0x2e>
	{
		Loc_enuStatus= INDEX_OUT_OF_RANGE;
    107c:	88 e0       	ldi	r24, 0x08	; 8
    107e:	89 83       	std	Y+1, r24	; 0x01
	}
	if(u8PinNbCpy<=DIO_u8PIN_7)
    1080:	8a 81       	ldd	r24, Y+2	; 0x02
    1082:	88 30       	cpi	r24, 0x08	; 8
    1084:	60 f5       	brcc	.+88     	; 0x10de <DIO_enuSetPinDirection+0x8c>
	{
		u8PinNbCpy-= DIO_u8_PORTA_START;
		if(u8PinStateCpy==DIO_u8INPUT)
    1086:	8b 81       	ldd	r24, Y+3	; 0x03
    1088:	88 23       	and	r24, r24
    108a:	a9 f4       	brne	.+42     	; 0x10b6 <DIO_enuSetPinDirection+0x64>
		{
			CLEAR_BIT(DDRA,u8PinNbCpy);
    108c:	aa e3       	ldi	r26, 0x3A	; 58
    108e:	b0 e0       	ldi	r27, 0x00	; 0
    1090:	ea e3       	ldi	r30, 0x3A	; 58
    1092:	f0 e0       	ldi	r31, 0x00	; 0
    1094:	80 81       	ld	r24, Z
    1096:	48 2f       	mov	r20, r24
    1098:	8a 81       	ldd	r24, Y+2	; 0x02
    109a:	28 2f       	mov	r18, r24
    109c:	30 e0       	ldi	r19, 0x00	; 0
    109e:	81 e0       	ldi	r24, 0x01	; 1
    10a0:	90 e0       	ldi	r25, 0x00	; 0
    10a2:	02 2e       	mov	r0, r18
    10a4:	02 c0       	rjmp	.+4      	; 0x10aa <DIO_enuSetPinDirection+0x58>
    10a6:	88 0f       	add	r24, r24
    10a8:	99 1f       	adc	r25, r25
    10aa:	0a 94       	dec	r0
    10ac:	e2 f7       	brpl	.-8      	; 0x10a6 <DIO_enuSetPinDirection+0x54>
    10ae:	80 95       	com	r24
    10b0:	84 23       	and	r24, r20
    10b2:	8c 93       	st	X, r24
    10b4:	a6 c0       	rjmp	.+332    	; 0x1202 <DIO_enuSetPinDirection+0x1b0>
		}
		else
		{
			SET_BIT(DDRA,u8PinNbCpy);
    10b6:	aa e3       	ldi	r26, 0x3A	; 58
    10b8:	b0 e0       	ldi	r27, 0x00	; 0
    10ba:	ea e3       	ldi	r30, 0x3A	; 58
    10bc:	f0 e0       	ldi	r31, 0x00	; 0
    10be:	80 81       	ld	r24, Z
    10c0:	48 2f       	mov	r20, r24
    10c2:	8a 81       	ldd	r24, Y+2	; 0x02
    10c4:	28 2f       	mov	r18, r24
    10c6:	30 e0       	ldi	r19, 0x00	; 0
    10c8:	81 e0       	ldi	r24, 0x01	; 1
    10ca:	90 e0       	ldi	r25, 0x00	; 0
    10cc:	02 2e       	mov	r0, r18
    10ce:	02 c0       	rjmp	.+4      	; 0x10d4 <DIO_enuSetPinDirection+0x82>
    10d0:	88 0f       	add	r24, r24
    10d2:	99 1f       	adc	r25, r25
    10d4:	0a 94       	dec	r0
    10d6:	e2 f7       	brpl	.-8      	; 0x10d0 <DIO_enuSetPinDirection+0x7e>
    10d8:	84 2b       	or	r24, r20
    10da:	8c 93       	st	X, r24
    10dc:	92 c0       	rjmp	.+292    	; 0x1202 <DIO_enuSetPinDirection+0x1b0>
		}
	}
	else if (u8PinNbCpy<=DIO_u8PIN_15)
    10de:	8a 81       	ldd	r24, Y+2	; 0x02
    10e0:	80 31       	cpi	r24, 0x10	; 16
    10e2:	78 f5       	brcc	.+94     	; 0x1142 <DIO_enuSetPinDirection+0xf0>
	{
		u8PinNbCpy-= DIO_u8_PORTB_START;
    10e4:	8a 81       	ldd	r24, Y+2	; 0x02
    10e6:	88 50       	subi	r24, 0x08	; 8
    10e8:	8a 83       	std	Y+2, r24	; 0x02
		if(u8PinStateCpy==DIO_u8INPUT)
    10ea:	8b 81       	ldd	r24, Y+3	; 0x03
    10ec:	88 23       	and	r24, r24
    10ee:	a9 f4       	brne	.+42     	; 0x111a <DIO_enuSetPinDirection+0xc8>
		{
			CLEAR_BIT(DDRB,u8PinNbCpy);
    10f0:	a7 e3       	ldi	r26, 0x37	; 55
    10f2:	b0 e0       	ldi	r27, 0x00	; 0
    10f4:	e7 e3       	ldi	r30, 0x37	; 55
    10f6:	f0 e0       	ldi	r31, 0x00	; 0
    10f8:	80 81       	ld	r24, Z
    10fa:	48 2f       	mov	r20, r24
    10fc:	8a 81       	ldd	r24, Y+2	; 0x02
    10fe:	28 2f       	mov	r18, r24
    1100:	30 e0       	ldi	r19, 0x00	; 0
    1102:	81 e0       	ldi	r24, 0x01	; 1
    1104:	90 e0       	ldi	r25, 0x00	; 0
    1106:	02 2e       	mov	r0, r18
    1108:	02 c0       	rjmp	.+4      	; 0x110e <DIO_enuSetPinDirection+0xbc>
    110a:	88 0f       	add	r24, r24
    110c:	99 1f       	adc	r25, r25
    110e:	0a 94       	dec	r0
    1110:	e2 f7       	brpl	.-8      	; 0x110a <DIO_enuSetPinDirection+0xb8>
    1112:	80 95       	com	r24
    1114:	84 23       	and	r24, r20
    1116:	8c 93       	st	X, r24
    1118:	74 c0       	rjmp	.+232    	; 0x1202 <DIO_enuSetPinDirection+0x1b0>
		}
		else
		{
			SET_BIT(DDRB,u8PinNbCpy);
    111a:	a7 e3       	ldi	r26, 0x37	; 55
    111c:	b0 e0       	ldi	r27, 0x00	; 0
    111e:	e7 e3       	ldi	r30, 0x37	; 55
    1120:	f0 e0       	ldi	r31, 0x00	; 0
    1122:	80 81       	ld	r24, Z
    1124:	48 2f       	mov	r20, r24
    1126:	8a 81       	ldd	r24, Y+2	; 0x02
    1128:	28 2f       	mov	r18, r24
    112a:	30 e0       	ldi	r19, 0x00	; 0
    112c:	81 e0       	ldi	r24, 0x01	; 1
    112e:	90 e0       	ldi	r25, 0x00	; 0
    1130:	02 2e       	mov	r0, r18
    1132:	02 c0       	rjmp	.+4      	; 0x1138 <DIO_enuSetPinDirection+0xe6>
    1134:	88 0f       	add	r24, r24
    1136:	99 1f       	adc	r25, r25
    1138:	0a 94       	dec	r0
    113a:	e2 f7       	brpl	.-8      	; 0x1134 <DIO_enuSetPinDirection+0xe2>
    113c:	84 2b       	or	r24, r20
    113e:	8c 93       	st	X, r24
    1140:	60 c0       	rjmp	.+192    	; 0x1202 <DIO_enuSetPinDirection+0x1b0>
		}
	}
	else if (u8PinNbCpy<=DIO_u8PIN_23)
    1142:	8a 81       	ldd	r24, Y+2	; 0x02
    1144:	88 31       	cpi	r24, 0x18	; 24
    1146:	78 f5       	brcc	.+94     	; 0x11a6 <DIO_enuSetPinDirection+0x154>
	{
		u8PinNbCpy-= DIO_u8_PORTC_START;
    1148:	8a 81       	ldd	r24, Y+2	; 0x02
    114a:	80 51       	subi	r24, 0x10	; 16
    114c:	8a 83       	std	Y+2, r24	; 0x02
		if(u8PinStateCpy==DIO_u8INPUT)
    114e:	8b 81       	ldd	r24, Y+3	; 0x03
    1150:	88 23       	and	r24, r24
    1152:	a9 f4       	brne	.+42     	; 0x117e <DIO_enuSetPinDirection+0x12c>
		{
			CLEAR_BIT(DDRC,u8PinNbCpy);
    1154:	a4 e3       	ldi	r26, 0x34	; 52
    1156:	b0 e0       	ldi	r27, 0x00	; 0
    1158:	e4 e3       	ldi	r30, 0x34	; 52
    115a:	f0 e0       	ldi	r31, 0x00	; 0
    115c:	80 81       	ld	r24, Z
    115e:	48 2f       	mov	r20, r24
    1160:	8a 81       	ldd	r24, Y+2	; 0x02
    1162:	28 2f       	mov	r18, r24
    1164:	30 e0       	ldi	r19, 0x00	; 0
    1166:	81 e0       	ldi	r24, 0x01	; 1
    1168:	90 e0       	ldi	r25, 0x00	; 0
    116a:	02 2e       	mov	r0, r18
    116c:	02 c0       	rjmp	.+4      	; 0x1172 <DIO_enuSetPinDirection+0x120>
    116e:	88 0f       	add	r24, r24
    1170:	99 1f       	adc	r25, r25
    1172:	0a 94       	dec	r0
    1174:	e2 f7       	brpl	.-8      	; 0x116e <DIO_enuSetPinDirection+0x11c>
    1176:	80 95       	com	r24
    1178:	84 23       	and	r24, r20
    117a:	8c 93       	st	X, r24
    117c:	42 c0       	rjmp	.+132    	; 0x1202 <DIO_enuSetPinDirection+0x1b0>
		}
		else
		{
			SET_BIT(DDRC,u8PinNbCpy);
    117e:	a4 e3       	ldi	r26, 0x34	; 52
    1180:	b0 e0       	ldi	r27, 0x00	; 0
    1182:	e4 e3       	ldi	r30, 0x34	; 52
    1184:	f0 e0       	ldi	r31, 0x00	; 0
    1186:	80 81       	ld	r24, Z
    1188:	48 2f       	mov	r20, r24
    118a:	8a 81       	ldd	r24, Y+2	; 0x02
    118c:	28 2f       	mov	r18, r24
    118e:	30 e0       	ldi	r19, 0x00	; 0
    1190:	81 e0       	ldi	r24, 0x01	; 1
    1192:	90 e0       	ldi	r25, 0x00	; 0
    1194:	02 2e       	mov	r0, r18
    1196:	02 c0       	rjmp	.+4      	; 0x119c <DIO_enuSetPinDirection+0x14a>
    1198:	88 0f       	add	r24, r24
    119a:	99 1f       	adc	r25, r25
    119c:	0a 94       	dec	r0
    119e:	e2 f7       	brpl	.-8      	; 0x1198 <DIO_enuSetPinDirection+0x146>
    11a0:	84 2b       	or	r24, r20
    11a2:	8c 93       	st	X, r24
    11a4:	2e c0       	rjmp	.+92     	; 0x1202 <DIO_enuSetPinDirection+0x1b0>
		}
	}
	//else if (DIO_u8PIN_24<=u8PinNbCpy&&u8PinNbCpy<=DIO_u8PIN_31)
	else
	{
		u8PinNbCpy-= DIO_u8_PORTD_START;
    11a6:	8a 81       	ldd	r24, Y+2	; 0x02
    11a8:	88 51       	subi	r24, 0x18	; 24
    11aa:	8a 83       	std	Y+2, r24	; 0x02
		if(u8PinStateCpy==DIO_u8INPUT)
    11ac:	8b 81       	ldd	r24, Y+3	; 0x03
    11ae:	88 23       	and	r24, r24
    11b0:	a9 f4       	brne	.+42     	; 0x11dc <DIO_enuSetPinDirection+0x18a>
		{
			CLEAR_BIT(DDRD,u8PinNbCpy);
    11b2:	a1 e3       	ldi	r26, 0x31	; 49
    11b4:	b0 e0       	ldi	r27, 0x00	; 0
    11b6:	e1 e3       	ldi	r30, 0x31	; 49
    11b8:	f0 e0       	ldi	r31, 0x00	; 0
    11ba:	80 81       	ld	r24, Z
    11bc:	48 2f       	mov	r20, r24
    11be:	8a 81       	ldd	r24, Y+2	; 0x02
    11c0:	28 2f       	mov	r18, r24
    11c2:	30 e0       	ldi	r19, 0x00	; 0
    11c4:	81 e0       	ldi	r24, 0x01	; 1
    11c6:	90 e0       	ldi	r25, 0x00	; 0
    11c8:	02 2e       	mov	r0, r18
    11ca:	02 c0       	rjmp	.+4      	; 0x11d0 <DIO_enuSetPinDirection+0x17e>
    11cc:	88 0f       	add	r24, r24
    11ce:	99 1f       	adc	r25, r25
    11d0:	0a 94       	dec	r0
    11d2:	e2 f7       	brpl	.-8      	; 0x11cc <DIO_enuSetPinDirection+0x17a>
    11d4:	80 95       	com	r24
    11d6:	84 23       	and	r24, r20
    11d8:	8c 93       	st	X, r24
    11da:	13 c0       	rjmp	.+38     	; 0x1202 <DIO_enuSetPinDirection+0x1b0>
		}
		else
		{
			SET_BIT(DDRD,u8PinNbCpy);
    11dc:	a1 e3       	ldi	r26, 0x31	; 49
    11de:	b0 e0       	ldi	r27, 0x00	; 0
    11e0:	e1 e3       	ldi	r30, 0x31	; 49
    11e2:	f0 e0       	ldi	r31, 0x00	; 0
    11e4:	80 81       	ld	r24, Z
    11e6:	48 2f       	mov	r20, r24
    11e8:	8a 81       	ldd	r24, Y+2	; 0x02
    11ea:	28 2f       	mov	r18, r24
    11ec:	30 e0       	ldi	r19, 0x00	; 0
    11ee:	81 e0       	ldi	r24, 0x01	; 1
    11f0:	90 e0       	ldi	r25, 0x00	; 0
    11f2:	02 2e       	mov	r0, r18
    11f4:	02 c0       	rjmp	.+4      	; 0x11fa <DIO_enuSetPinDirection+0x1a8>
    11f6:	88 0f       	add	r24, r24
    11f8:	99 1f       	adc	r25, r25
    11fa:	0a 94       	dec	r0
    11fc:	e2 f7       	brpl	.-8      	; 0x11f6 <DIO_enuSetPinDirection+0x1a4>
    11fe:	84 2b       	or	r24, r20
    1200:	8c 93       	st	X, r24
		}
	}
	return Loc_enuStatus;
    1202:	89 81       	ldd	r24, Y+1	; 0x01
}
    1204:	0f 90       	pop	r0
    1206:	0f 90       	pop	r0
    1208:	0f 90       	pop	r0
    120a:	cf 91       	pop	r28
    120c:	df 91       	pop	r29
    120e:	08 95       	ret

00001210 <DIO_enuTogglePin>:
/** Inputs : u8PinNbCpy number of pins from 0 to 31	*/
/** Output : Error Status 							*/
/****************************************************/

Error_Status DIO_enuTogglePin(u8 u8PinNbCpy)
{
    1210:	df 93       	push	r29
    1212:	cf 93       	push	r28
    1214:	00 d0       	rcall	.+0      	; 0x1216 <DIO_enuTogglePin+0x6>
    1216:	cd b7       	in	r28, 0x3d	; 61
    1218:	de b7       	in	r29, 0x3e	; 62
    121a:	8a 83       	std	Y+2, r24	; 0x02
	Error_Status Loc_enuStatus = OK;
    121c:	19 82       	std	Y+1, r1	; 0x01
	if(u8PinNbCpy>DIO_u8PIN_31)
    121e:	8a 81       	ldd	r24, Y+2	; 0x02
    1220:	80 32       	cpi	r24, 0x20	; 32
    1222:	18 f0       	brcs	.+6      	; 0x122a <DIO_enuTogglePin+0x1a>
	{
		Loc_enuStatus=INDEX_OUT_OF_RANGE;
    1224:	88 e0       	ldi	r24, 0x08	; 8
    1226:	89 83       	std	Y+1, r24	; 0x01
    1228:	61 c0       	rjmp	.+194    	; 0x12ec <DIO_enuTogglePin+0xdc>
	}
	else if(u8PinNbCpy<=DIO_u8PIN_7)
    122a:	8a 81       	ldd	r24, Y+2	; 0x02
    122c:	88 30       	cpi	r24, 0x08	; 8
    122e:	a0 f4       	brcc	.+40     	; 0x1258 <DIO_enuTogglePin+0x48>
	{
		u8PinNbCpy-= DIO_u8_PORTA_START;
		TOGGLE_BIT(PORTA,u8PinNbCpy);
    1230:	ab e3       	ldi	r26, 0x3B	; 59
    1232:	b0 e0       	ldi	r27, 0x00	; 0
    1234:	eb e3       	ldi	r30, 0x3B	; 59
    1236:	f0 e0       	ldi	r31, 0x00	; 0
    1238:	80 81       	ld	r24, Z
    123a:	48 2f       	mov	r20, r24
    123c:	8a 81       	ldd	r24, Y+2	; 0x02
    123e:	28 2f       	mov	r18, r24
    1240:	30 e0       	ldi	r19, 0x00	; 0
    1242:	81 e0       	ldi	r24, 0x01	; 1
    1244:	90 e0       	ldi	r25, 0x00	; 0
    1246:	02 2e       	mov	r0, r18
    1248:	02 c0       	rjmp	.+4      	; 0x124e <DIO_enuTogglePin+0x3e>
    124a:	88 0f       	add	r24, r24
    124c:	99 1f       	adc	r25, r25
    124e:	0a 94       	dec	r0
    1250:	e2 f7       	brpl	.-8      	; 0x124a <DIO_enuTogglePin+0x3a>
    1252:	84 27       	eor	r24, r20
    1254:	8c 93       	st	X, r24
    1256:	4a c0       	rjmp	.+148    	; 0x12ec <DIO_enuTogglePin+0xdc>
	}
	else if (u8PinNbCpy<=DIO_u8PIN_15)
    1258:	8a 81       	ldd	r24, Y+2	; 0x02
    125a:	80 31       	cpi	r24, 0x10	; 16
    125c:	b8 f4       	brcc	.+46     	; 0x128c <DIO_enuTogglePin+0x7c>
	{
		u8PinNbCpy-= DIO_u8_PORTB_START;
    125e:	8a 81       	ldd	r24, Y+2	; 0x02
    1260:	88 50       	subi	r24, 0x08	; 8
    1262:	8a 83       	std	Y+2, r24	; 0x02
		TOGGLE_BIT(PORTB,u8PinNbCpy);
    1264:	a8 e3       	ldi	r26, 0x38	; 56
    1266:	b0 e0       	ldi	r27, 0x00	; 0
    1268:	e8 e3       	ldi	r30, 0x38	; 56
    126a:	f0 e0       	ldi	r31, 0x00	; 0
    126c:	80 81       	ld	r24, Z
    126e:	48 2f       	mov	r20, r24
    1270:	8a 81       	ldd	r24, Y+2	; 0x02
    1272:	28 2f       	mov	r18, r24
    1274:	30 e0       	ldi	r19, 0x00	; 0
    1276:	81 e0       	ldi	r24, 0x01	; 1
    1278:	90 e0       	ldi	r25, 0x00	; 0
    127a:	02 2e       	mov	r0, r18
    127c:	02 c0       	rjmp	.+4      	; 0x1282 <DIO_enuTogglePin+0x72>
    127e:	88 0f       	add	r24, r24
    1280:	99 1f       	adc	r25, r25
    1282:	0a 94       	dec	r0
    1284:	e2 f7       	brpl	.-8      	; 0x127e <DIO_enuTogglePin+0x6e>
    1286:	84 27       	eor	r24, r20
    1288:	8c 93       	st	X, r24
    128a:	30 c0       	rjmp	.+96     	; 0x12ec <DIO_enuTogglePin+0xdc>
	}
	else if (u8PinNbCpy<=DIO_u8PIN_23)
    128c:	8a 81       	ldd	r24, Y+2	; 0x02
    128e:	88 31       	cpi	r24, 0x18	; 24
    1290:	b8 f4       	brcc	.+46     	; 0x12c0 <DIO_enuTogglePin+0xb0>
	{
		u8PinNbCpy-= DIO_u8_PORTC_START;
    1292:	8a 81       	ldd	r24, Y+2	; 0x02
    1294:	80 51       	subi	r24, 0x10	; 16
    1296:	8a 83       	std	Y+2, r24	; 0x02
		TOGGLE_BIT(PORTC,u8PinNbCpy);
    1298:	a5 e3       	ldi	r26, 0x35	; 53
    129a:	b0 e0       	ldi	r27, 0x00	; 0
    129c:	e5 e3       	ldi	r30, 0x35	; 53
    129e:	f0 e0       	ldi	r31, 0x00	; 0
    12a0:	80 81       	ld	r24, Z
    12a2:	48 2f       	mov	r20, r24
    12a4:	8a 81       	ldd	r24, Y+2	; 0x02
    12a6:	28 2f       	mov	r18, r24
    12a8:	30 e0       	ldi	r19, 0x00	; 0
    12aa:	81 e0       	ldi	r24, 0x01	; 1
    12ac:	90 e0       	ldi	r25, 0x00	; 0
    12ae:	02 2e       	mov	r0, r18
    12b0:	02 c0       	rjmp	.+4      	; 0x12b6 <DIO_enuTogglePin+0xa6>
    12b2:	88 0f       	add	r24, r24
    12b4:	99 1f       	adc	r25, r25
    12b6:	0a 94       	dec	r0
    12b8:	e2 f7       	brpl	.-8      	; 0x12b2 <DIO_enuTogglePin+0xa2>
    12ba:	84 27       	eor	r24, r20
    12bc:	8c 93       	st	X, r24
    12be:	16 c0       	rjmp	.+44     	; 0x12ec <DIO_enuTogglePin+0xdc>
	}
	//else if (u8PinNbCpy<=DIO_u8PIN_31)
	else
	{
		u8PinNbCpy-= DIO_u8_PORTD_START;
    12c0:	8a 81       	ldd	r24, Y+2	; 0x02
    12c2:	88 51       	subi	r24, 0x18	; 24
    12c4:	8a 83       	std	Y+2, r24	; 0x02
		TOGGLE_BIT(PORTD,u8PinNbCpy);
    12c6:	a2 e3       	ldi	r26, 0x32	; 50
    12c8:	b0 e0       	ldi	r27, 0x00	; 0
    12ca:	e2 e3       	ldi	r30, 0x32	; 50
    12cc:	f0 e0       	ldi	r31, 0x00	; 0
    12ce:	80 81       	ld	r24, Z
    12d0:	48 2f       	mov	r20, r24
    12d2:	8a 81       	ldd	r24, Y+2	; 0x02
    12d4:	28 2f       	mov	r18, r24
    12d6:	30 e0       	ldi	r19, 0x00	; 0
    12d8:	81 e0       	ldi	r24, 0x01	; 1
    12da:	90 e0       	ldi	r25, 0x00	; 0
    12dc:	02 2e       	mov	r0, r18
    12de:	02 c0       	rjmp	.+4      	; 0x12e4 <DIO_enuTogglePin+0xd4>
    12e0:	88 0f       	add	r24, r24
    12e2:	99 1f       	adc	r25, r25
    12e4:	0a 94       	dec	r0
    12e6:	e2 f7       	brpl	.-8      	; 0x12e0 <DIO_enuTogglePin+0xd0>
    12e8:	84 27       	eor	r24, r20
    12ea:	8c 93       	st	X, r24
	}
	return Loc_enuStatus;
    12ec:	89 81       	ldd	r24, Y+1	; 0x01
}
    12ee:	0f 90       	pop	r0
    12f0:	0f 90       	pop	r0
    12f2:	cf 91       	pop	r28
    12f4:	df 91       	pop	r29
    12f6:	08 95       	ret

000012f8 <DIO_enuPullUp>:
/** Inputs : u8PinNbCpy pin number from 0 to 31		*/
/** Output : Error Status  							*/
/****************************************************/

Error_Status DIO_enuPullUp(u8 u8PinNbCpy)
{
    12f8:	df 93       	push	r29
    12fa:	cf 93       	push	r28
    12fc:	0f 92       	push	r0
    12fe:	cd b7       	in	r28, 0x3d	; 61
    1300:	de b7       	in	r29, 0x3e	; 62
    1302:	89 83       	std	Y+1, r24	; 0x01
	return DIO_enuSetPinValue(u8PinNbCpy,DIO_u8OUTPUT);
    1304:	89 81       	ldd	r24, Y+1	; 0x01
    1306:	61 e0       	ldi	r22, 0x01	; 1
    1308:	0e 94 ca 06 	call	0xd94	; 0xd94 <DIO_enuSetPinValue>
}
    130c:	0f 90       	pop	r0
    130e:	cf 91       	pop	r28
    1310:	df 91       	pop	r29
    1312:	08 95       	ret

00001314 <DIO_enuGetPortX>:
/** Inputs : pu8ValueCpy pointer to input value 	*/
/** Output : Error Status  							*/
/****************************************************/

Error_Status DIO_enuGetPortX(u8 *pu8ValueCpy)	// Complete the function
{
    1314:	df 93       	push	r29
    1316:	cf 93       	push	r28
    1318:	00 d0       	rcall	.+0      	; 0x131a <DIO_enuGetPortX+0x6>
    131a:	00 d0       	rcall	.+0      	; 0x131c <DIO_enuGetPortX+0x8>
    131c:	0f 92       	push	r0
    131e:	cd b7       	in	r28, 0x3d	; 61
    1320:	de b7       	in	r29, 0x3e	; 62
    1322:	9d 83       	std	Y+5, r25	; 0x05
    1324:	8c 83       	std	Y+4, r24	; 0x04
	Error_Status status = OK;	
    1326:	1a 82       	std	Y+2, r1	; 0x02
	u8 Loc_u8temp;
	u8 Loc_u8Iteration;
	for(Loc_u8Iteration=0;Loc_u8Iteration<8;Loc_u8Iteration++)
    1328:	19 82       	std	Y+1, r1	; 0x01
    132a:	38 c0       	rjmp	.+112    	; 0x139c <DIO_enuGetPortX+0x88>
	{
		DIO_enuSetPinDirection(DIO_arrPortX[Loc_u8Iteration],DIO_u8INPUT);
    132c:	89 81       	ldd	r24, Y+1	; 0x01
    132e:	88 2f       	mov	r24, r24
    1330:	90 e0       	ldi	r25, 0x00	; 0
    1332:	fc 01       	movw	r30, r24
    1334:	e8 59       	subi	r30, 0x98	; 152
    1336:	ff 4f       	sbci	r31, 0xFF	; 255
    1338:	80 81       	ld	r24, Z
    133a:	60 e0       	ldi	r22, 0x00	; 0
    133c:	0e 94 29 08 	call	0x1052	; 0x1052 <DIO_enuSetPinDirection>
		DIO_enuPullUp(DIO_arrPortX[Loc_u8Iteration]);
    1340:	89 81       	ldd	r24, Y+1	; 0x01
    1342:	88 2f       	mov	r24, r24
    1344:	90 e0       	ldi	r25, 0x00	; 0
    1346:	fc 01       	movw	r30, r24
    1348:	e8 59       	subi	r30, 0x98	; 152
    134a:	ff 4f       	sbci	r31, 0xFF	; 255
    134c:	80 81       	ld	r24, Z
    134e:	0e 94 7c 09 	call	0x12f8	; 0x12f8 <DIO_enuPullUp>
		DIO_enuGetPinValue(DIO_arrPortX[Loc_u8Iteration],&Loc_u8temp);
    1352:	89 81       	ldd	r24, Y+1	; 0x01
    1354:	88 2f       	mov	r24, r24
    1356:	90 e0       	ldi	r25, 0x00	; 0
    1358:	fc 01       	movw	r30, r24
    135a:	e8 59       	subi	r30, 0x98	; 152
    135c:	ff 4f       	sbci	r31, 0xFF	; 255
    135e:	80 81       	ld	r24, Z
    1360:	9e 01       	movw	r18, r28
    1362:	2d 5f       	subi	r18, 0xFD	; 253
    1364:	3f 4f       	sbci	r19, 0xFF	; 255
    1366:	b9 01       	movw	r22, r18
    1368:	0e 94 aa 07 	call	0xf54	; 0xf54 <DIO_enuGetPinValue>
		*pu8ValueCpy |= Loc_u8temp<<Loc_u8Iteration;
    136c:	ec 81       	ldd	r30, Y+4	; 0x04
    136e:	fd 81       	ldd	r31, Y+5	; 0x05
    1370:	80 81       	ld	r24, Z
    1372:	48 2f       	mov	r20, r24
    1374:	8b 81       	ldd	r24, Y+3	; 0x03
    1376:	28 2f       	mov	r18, r24
    1378:	30 e0       	ldi	r19, 0x00	; 0
    137a:	89 81       	ldd	r24, Y+1	; 0x01
    137c:	88 2f       	mov	r24, r24
    137e:	90 e0       	ldi	r25, 0x00	; 0
    1380:	b9 01       	movw	r22, r18
    1382:	02 c0       	rjmp	.+4      	; 0x1388 <DIO_enuGetPortX+0x74>
    1384:	66 0f       	add	r22, r22
    1386:	77 1f       	adc	r23, r23
    1388:	8a 95       	dec	r24
    138a:	e2 f7       	brpl	.-8      	; 0x1384 <DIO_enuGetPortX+0x70>
    138c:	cb 01       	movw	r24, r22
    138e:	84 2b       	or	r24, r20
    1390:	ec 81       	ldd	r30, Y+4	; 0x04
    1392:	fd 81       	ldd	r31, Y+5	; 0x05
    1394:	80 83       	st	Z, r24
Error_Status DIO_enuGetPortX(u8 *pu8ValueCpy)	// Complete the function
{
	Error_Status status = OK;	
	u8 Loc_u8temp;
	u8 Loc_u8Iteration;
	for(Loc_u8Iteration=0;Loc_u8Iteration<8;Loc_u8Iteration++)
    1396:	89 81       	ldd	r24, Y+1	; 0x01
    1398:	8f 5f       	subi	r24, 0xFF	; 255
    139a:	89 83       	std	Y+1, r24	; 0x01
    139c:	89 81       	ldd	r24, Y+1	; 0x01
    139e:	88 30       	cpi	r24, 0x08	; 8
    13a0:	28 f2       	brcs	.-118    	; 0x132c <DIO_enuGetPortX+0x18>
		DIO_enuPullUp(DIO_arrPortX[Loc_u8Iteration]);
		DIO_enuGetPinValue(DIO_arrPortX[Loc_u8Iteration],&Loc_u8temp);
		*pu8ValueCpy |= Loc_u8temp<<Loc_u8Iteration;
	}
	
	return status ;
    13a2:	8a 81       	ldd	r24, Y+2	; 0x02
}
    13a4:	0f 90       	pop	r0
    13a6:	0f 90       	pop	r0
    13a8:	0f 90       	pop	r0
    13aa:	0f 90       	pop	r0
    13ac:	0f 90       	pop	r0
    13ae:	cf 91       	pop	r28
    13b0:	df 91       	pop	r29
    13b2:	08 95       	ret

000013b4 <DIO_enuSetPortX>:
/** Inputs : u8ValueCpy  input value 				*/
/** Output : Error Status  							*/
/****************************************************/

Error_Status DIO_enuSetPortX(u8 u8ValueCpy)
{	
    13b4:	df 93       	push	r29
    13b6:	cf 93       	push	r28
    13b8:	00 d0       	rcall	.+0      	; 0x13ba <DIO_enuSetPortX+0x6>
    13ba:	0f 92       	push	r0
    13bc:	cd b7       	in	r28, 0x3d	; 61
    13be:	de b7       	in	r29, 0x3e	; 62
    13c0:	8b 83       	std	Y+3, r24	; 0x03
	Error_Status status = OK;
    13c2:	1a 82       	std	Y+2, r1	; 0x02

	/*Setting the Direction*/

	u8 Loc_u8Iteration;
	for(Loc_u8Iteration=0;Loc_u8Iteration<8;Loc_u8Iteration++)
    13c4:	19 82       	std	Y+1, r1	; 0x01
    13c6:	33 c0       	rjmp	.+102    	; 0x142e <DIO_enuSetPortX+0x7a>
	{
		DIO_enuSetPinDirection(DIO_arrPortX[Loc_u8Iteration],DIO_u8OUTPUT);
    13c8:	89 81       	ldd	r24, Y+1	; 0x01
    13ca:	88 2f       	mov	r24, r24
    13cc:	90 e0       	ldi	r25, 0x00	; 0
    13ce:	fc 01       	movw	r30, r24
    13d0:	e8 59       	subi	r30, 0x98	; 152
    13d2:	ff 4f       	sbci	r31, 0xFF	; 255
    13d4:	80 81       	ld	r24, Z
    13d6:	61 e0       	ldi	r22, 0x01	; 1
    13d8:	0e 94 29 08 	call	0x1052	; 0x1052 <DIO_enuSetPinDirection>
		if(u8ValueCpy&(1<<Loc_u8Iteration))
    13dc:	8b 81       	ldd	r24, Y+3	; 0x03
    13de:	28 2f       	mov	r18, r24
    13e0:	30 e0       	ldi	r19, 0x00	; 0
    13e2:	89 81       	ldd	r24, Y+1	; 0x01
    13e4:	88 2f       	mov	r24, r24
    13e6:	90 e0       	ldi	r25, 0x00	; 0
    13e8:	a9 01       	movw	r20, r18
    13ea:	02 c0       	rjmp	.+4      	; 0x13f0 <DIO_enuSetPortX+0x3c>
    13ec:	55 95       	asr	r21
    13ee:	47 95       	ror	r20
    13f0:	8a 95       	dec	r24
    13f2:	e2 f7       	brpl	.-8      	; 0x13ec <DIO_enuSetPortX+0x38>
    13f4:	ca 01       	movw	r24, r20
    13f6:	81 70       	andi	r24, 0x01	; 1
    13f8:	90 70       	andi	r25, 0x00	; 0
    13fa:	88 23       	and	r24, r24
    13fc:	59 f0       	breq	.+22     	; 0x1414 <DIO_enuSetPortX+0x60>
		{
			DIO_enuSetPinValue(DIO_arrPortX[Loc_u8Iteration],DIO_u8HIGH);
    13fe:	89 81       	ldd	r24, Y+1	; 0x01
    1400:	88 2f       	mov	r24, r24
    1402:	90 e0       	ldi	r25, 0x00	; 0
    1404:	fc 01       	movw	r30, r24
    1406:	e8 59       	subi	r30, 0x98	; 152
    1408:	ff 4f       	sbci	r31, 0xFF	; 255
    140a:	80 81       	ld	r24, Z
    140c:	61 e0       	ldi	r22, 0x01	; 1
    140e:	0e 94 ca 06 	call	0xd94	; 0xd94 <DIO_enuSetPinValue>
    1412:	0a c0       	rjmp	.+20     	; 0x1428 <DIO_enuSetPortX+0x74>
		}
		else
		{
			DIO_enuSetPinValue(DIO_arrPortX[Loc_u8Iteration],DIO_u8LOW);
    1414:	89 81       	ldd	r24, Y+1	; 0x01
    1416:	88 2f       	mov	r24, r24
    1418:	90 e0       	ldi	r25, 0x00	; 0
    141a:	fc 01       	movw	r30, r24
    141c:	e8 59       	subi	r30, 0x98	; 152
    141e:	ff 4f       	sbci	r31, 0xFF	; 255
    1420:	80 81       	ld	r24, Z
    1422:	60 e0       	ldi	r22, 0x00	; 0
    1424:	0e 94 ca 06 	call	0xd94	; 0xd94 <DIO_enuSetPinValue>
	Error_Status status = OK;

	/*Setting the Direction*/

	u8 Loc_u8Iteration;
	for(Loc_u8Iteration=0;Loc_u8Iteration<8;Loc_u8Iteration++)
    1428:	89 81       	ldd	r24, Y+1	; 0x01
    142a:	8f 5f       	subi	r24, 0xFF	; 255
    142c:	89 83       	std	Y+1, r24	; 0x01
    142e:	89 81       	ldd	r24, Y+1	; 0x01
    1430:	88 30       	cpi	r24, 0x08	; 8
    1432:	50 f2       	brcs	.-108    	; 0x13c8 <DIO_enuSetPortX+0x14>
		else
		{
			DIO_enuSetPinValue(DIO_arrPortX[Loc_u8Iteration],DIO_u8LOW);
		}
	}
	return status;
    1434:	8a 81       	ldd	r24, Y+2	; 0x02
}
    1436:	0f 90       	pop	r0
    1438:	0f 90       	pop	r0
    143a:	0f 90       	pop	r0
    143c:	cf 91       	pop	r28
    143e:	df 91       	pop	r29
    1440:	08 95       	ret

00001442 <DIO_enuGetPortY>:
/** Inputs : pu8ValueCpy pointer to input value 	*/
/** Output : Error Status  							*/
/****************************************************/

Error_Status DIO_enuGetPortY(u8 *pu8ValueCpy)	// Complete the function
{
    1442:	df 93       	push	r29
    1444:	cf 93       	push	r28
    1446:	00 d0       	rcall	.+0      	; 0x1448 <DIO_enuGetPortY+0x6>
    1448:	00 d0       	rcall	.+0      	; 0x144a <DIO_enuGetPortY+0x8>
    144a:	0f 92       	push	r0
    144c:	cd b7       	in	r28, 0x3d	; 61
    144e:	de b7       	in	r29, 0x3e	; 62
    1450:	9d 83       	std	Y+5, r25	; 0x05
    1452:	8c 83       	std	Y+4, r24	; 0x04
	Error_Status status = OK;	
    1454:	1a 82       	std	Y+2, r1	; 0x02
	u8 Loc_u8temp;
	u8 Loc_u8Iteration;
	for(Loc_u8Iteration=0;Loc_u8Iteration<8;Loc_u8Iteration++)
    1456:	19 82       	std	Y+1, r1	; 0x01
    1458:	38 c0       	rjmp	.+112    	; 0x14ca <DIO_enuGetPortY+0x88>
	{
		DIO_enuSetPinDirection(DIO_arrPortY[Loc_u8Iteration],DIO_u8INPUT);
    145a:	89 81       	ldd	r24, Y+1	; 0x01
    145c:	88 2f       	mov	r24, r24
    145e:	90 e0       	ldi	r25, 0x00	; 0
    1460:	fc 01       	movw	r30, r24
    1462:	e0 59       	subi	r30, 0x90	; 144
    1464:	ff 4f       	sbci	r31, 0xFF	; 255
    1466:	80 81       	ld	r24, Z
    1468:	60 e0       	ldi	r22, 0x00	; 0
    146a:	0e 94 29 08 	call	0x1052	; 0x1052 <DIO_enuSetPinDirection>
		DIO_enuPullUp(DIO_arrPortY[Loc_u8Iteration]);
    146e:	89 81       	ldd	r24, Y+1	; 0x01
    1470:	88 2f       	mov	r24, r24
    1472:	90 e0       	ldi	r25, 0x00	; 0
    1474:	fc 01       	movw	r30, r24
    1476:	e0 59       	subi	r30, 0x90	; 144
    1478:	ff 4f       	sbci	r31, 0xFF	; 255
    147a:	80 81       	ld	r24, Z
    147c:	0e 94 7c 09 	call	0x12f8	; 0x12f8 <DIO_enuPullUp>
		DIO_enuGetPinValue(DIO_arrPortY[Loc_u8Iteration],&Loc_u8temp);
    1480:	89 81       	ldd	r24, Y+1	; 0x01
    1482:	88 2f       	mov	r24, r24
    1484:	90 e0       	ldi	r25, 0x00	; 0
    1486:	fc 01       	movw	r30, r24
    1488:	e0 59       	subi	r30, 0x90	; 144
    148a:	ff 4f       	sbci	r31, 0xFF	; 255
    148c:	80 81       	ld	r24, Z
    148e:	9e 01       	movw	r18, r28
    1490:	2d 5f       	subi	r18, 0xFD	; 253
    1492:	3f 4f       	sbci	r19, 0xFF	; 255
    1494:	b9 01       	movw	r22, r18
    1496:	0e 94 aa 07 	call	0xf54	; 0xf54 <DIO_enuGetPinValue>
		*pu8ValueCpy |= Loc_u8temp<<Loc_u8Iteration;
    149a:	ec 81       	ldd	r30, Y+4	; 0x04
    149c:	fd 81       	ldd	r31, Y+5	; 0x05
    149e:	80 81       	ld	r24, Z
    14a0:	48 2f       	mov	r20, r24
    14a2:	8b 81       	ldd	r24, Y+3	; 0x03
    14a4:	28 2f       	mov	r18, r24
    14a6:	30 e0       	ldi	r19, 0x00	; 0
    14a8:	89 81       	ldd	r24, Y+1	; 0x01
    14aa:	88 2f       	mov	r24, r24
    14ac:	90 e0       	ldi	r25, 0x00	; 0
    14ae:	b9 01       	movw	r22, r18
    14b0:	02 c0       	rjmp	.+4      	; 0x14b6 <DIO_enuGetPortY+0x74>
    14b2:	66 0f       	add	r22, r22
    14b4:	77 1f       	adc	r23, r23
    14b6:	8a 95       	dec	r24
    14b8:	e2 f7       	brpl	.-8      	; 0x14b2 <DIO_enuGetPortY+0x70>
    14ba:	cb 01       	movw	r24, r22
    14bc:	84 2b       	or	r24, r20
    14be:	ec 81       	ldd	r30, Y+4	; 0x04
    14c0:	fd 81       	ldd	r31, Y+5	; 0x05
    14c2:	80 83       	st	Z, r24
Error_Status DIO_enuGetPortY(u8 *pu8ValueCpy)	// Complete the function
{
	Error_Status status = OK;	
	u8 Loc_u8temp;
	u8 Loc_u8Iteration;
	for(Loc_u8Iteration=0;Loc_u8Iteration<8;Loc_u8Iteration++)
    14c4:	89 81       	ldd	r24, Y+1	; 0x01
    14c6:	8f 5f       	subi	r24, 0xFF	; 255
    14c8:	89 83       	std	Y+1, r24	; 0x01
    14ca:	89 81       	ldd	r24, Y+1	; 0x01
    14cc:	88 30       	cpi	r24, 0x08	; 8
    14ce:	28 f2       	brcs	.-118    	; 0x145a <DIO_enuGetPortY+0x18>
		DIO_enuGetPinValue(DIO_arrPortY[Loc_u8Iteration],&Loc_u8temp);
		*pu8ValueCpy |= Loc_u8temp<<Loc_u8Iteration;
	}


	return status ;
    14d0:	8a 81       	ldd	r24, Y+2	; 0x02
}
    14d2:	0f 90       	pop	r0
    14d4:	0f 90       	pop	r0
    14d6:	0f 90       	pop	r0
    14d8:	0f 90       	pop	r0
    14da:	0f 90       	pop	r0
    14dc:	cf 91       	pop	r28
    14de:	df 91       	pop	r29
    14e0:	08 95       	ret

000014e2 <DIO_enuSetPortY>:
/** Inputs : u8ValueCpy  input value 				*/
/** Output : Error Status  							*/
/****************************************************/

Error_Status DIO_enuSetPortY(u8 u8ValueCpy)
{
    14e2:	df 93       	push	r29
    14e4:	cf 93       	push	r28
    14e6:	00 d0       	rcall	.+0      	; 0x14e8 <DIO_enuSetPortY+0x6>
    14e8:	0f 92       	push	r0
    14ea:	cd b7       	in	r28, 0x3d	; 61
    14ec:	de b7       	in	r29, 0x3e	; 62
    14ee:	8b 83       	std	Y+3, r24	; 0x03
	Error_Status status = OK;
    14f0:	1a 82       	std	Y+2, r1	; 0x02

	/*Setting the Direction*/
	u8 Loc_u8Iteration;
	for(Loc_u8Iteration=0;Loc_u8Iteration<8;Loc_u8Iteration++)
    14f2:	19 82       	std	Y+1, r1	; 0x01
    14f4:	33 c0       	rjmp	.+102    	; 0x155c <DIO_enuSetPortY+0x7a>
	{
		DIO_enuSetPinDirection(DIO_arrPortY[Loc_u8Iteration],DIO_u8OUTPUT);
    14f6:	89 81       	ldd	r24, Y+1	; 0x01
    14f8:	88 2f       	mov	r24, r24
    14fa:	90 e0       	ldi	r25, 0x00	; 0
    14fc:	fc 01       	movw	r30, r24
    14fe:	e0 59       	subi	r30, 0x90	; 144
    1500:	ff 4f       	sbci	r31, 0xFF	; 255
    1502:	80 81       	ld	r24, Z
    1504:	61 e0       	ldi	r22, 0x01	; 1
    1506:	0e 94 29 08 	call	0x1052	; 0x1052 <DIO_enuSetPinDirection>
		if(u8ValueCpy&(1<<Loc_u8Iteration))
    150a:	8b 81       	ldd	r24, Y+3	; 0x03
    150c:	28 2f       	mov	r18, r24
    150e:	30 e0       	ldi	r19, 0x00	; 0
    1510:	89 81       	ldd	r24, Y+1	; 0x01
    1512:	88 2f       	mov	r24, r24
    1514:	90 e0       	ldi	r25, 0x00	; 0
    1516:	a9 01       	movw	r20, r18
    1518:	02 c0       	rjmp	.+4      	; 0x151e <DIO_enuSetPortY+0x3c>
    151a:	55 95       	asr	r21
    151c:	47 95       	ror	r20
    151e:	8a 95       	dec	r24
    1520:	e2 f7       	brpl	.-8      	; 0x151a <DIO_enuSetPortY+0x38>
    1522:	ca 01       	movw	r24, r20
    1524:	81 70       	andi	r24, 0x01	; 1
    1526:	90 70       	andi	r25, 0x00	; 0
    1528:	88 23       	and	r24, r24
    152a:	59 f0       	breq	.+22     	; 0x1542 <DIO_enuSetPortY+0x60>
		{
			DIO_enuSetPinValue(DIO_arrPortY[Loc_u8Iteration],DIO_u8HIGH);
    152c:	89 81       	ldd	r24, Y+1	; 0x01
    152e:	88 2f       	mov	r24, r24
    1530:	90 e0       	ldi	r25, 0x00	; 0
    1532:	fc 01       	movw	r30, r24
    1534:	e0 59       	subi	r30, 0x90	; 144
    1536:	ff 4f       	sbci	r31, 0xFF	; 255
    1538:	80 81       	ld	r24, Z
    153a:	61 e0       	ldi	r22, 0x01	; 1
    153c:	0e 94 ca 06 	call	0xd94	; 0xd94 <DIO_enuSetPinValue>
    1540:	0a c0       	rjmp	.+20     	; 0x1556 <DIO_enuSetPortY+0x74>
		}
		else
		{
			DIO_enuSetPinValue(DIO_arrPortY[Loc_u8Iteration],DIO_u8LOW);
    1542:	89 81       	ldd	r24, Y+1	; 0x01
    1544:	88 2f       	mov	r24, r24
    1546:	90 e0       	ldi	r25, 0x00	; 0
    1548:	fc 01       	movw	r30, r24
    154a:	e0 59       	subi	r30, 0x90	; 144
    154c:	ff 4f       	sbci	r31, 0xFF	; 255
    154e:	80 81       	ld	r24, Z
    1550:	60 e0       	ldi	r22, 0x00	; 0
    1552:	0e 94 ca 06 	call	0xd94	; 0xd94 <DIO_enuSetPinValue>
{
	Error_Status status = OK;

	/*Setting the Direction*/
	u8 Loc_u8Iteration;
	for(Loc_u8Iteration=0;Loc_u8Iteration<8;Loc_u8Iteration++)
    1556:	89 81       	ldd	r24, Y+1	; 0x01
    1558:	8f 5f       	subi	r24, 0xFF	; 255
    155a:	89 83       	std	Y+1, r24	; 0x01
    155c:	89 81       	ldd	r24, Y+1	; 0x01
    155e:	88 30       	cpi	r24, 0x08	; 8
    1560:	50 f2       	brcs	.-108    	; 0x14f6 <DIO_enuSetPortY+0x14>
		else
		{
			DIO_enuSetPinValue(DIO_arrPortY[Loc_u8Iteration],DIO_u8LOW);
		}
	}
	return status;
    1562:	8a 81       	ldd	r24, Y+2	; 0x02
	}
    1564:	0f 90       	pop	r0
    1566:	0f 90       	pop	r0
    1568:	0f 90       	pop	r0
    156a:	cf 91       	pop	r28
    156c:	df 91       	pop	r29
    156e:	08 95       	ret

00001570 <DIO_enuGetPortZ>:
/** Inputs : pu8ValueCpy pointer to input value 	*/
/** Output : Error Status  							*/
/****************************************************/

Error_Status DIO_enuGetPortZ(u8 *pu8ValueCpy)	// Complete the function
{
    1570:	df 93       	push	r29
    1572:	cf 93       	push	r28
    1574:	00 d0       	rcall	.+0      	; 0x1576 <DIO_enuGetPortZ+0x6>
    1576:	00 d0       	rcall	.+0      	; 0x1578 <DIO_enuGetPortZ+0x8>
    1578:	0f 92       	push	r0
    157a:	cd b7       	in	r28, 0x3d	; 61
    157c:	de b7       	in	r29, 0x3e	; 62
    157e:	9d 83       	std	Y+5, r25	; 0x05
    1580:	8c 83       	std	Y+4, r24	; 0x04
	*pu8ValueCpy = 0;
    1582:	ec 81       	ldd	r30, Y+4	; 0x04
    1584:	fd 81       	ldd	r31, Y+5	; 0x05
    1586:	10 82       	st	Z, r1
	Error_Status status = OK;	
    1588:	1a 82       	std	Y+2, r1	; 0x02
	u8 Loc_u8temp=0;
    158a:	1b 82       	std	Y+3, r1	; 0x03
	u8 Loc_u8Iteration;
	for(Loc_u8Iteration=0;Loc_u8Iteration<8;Loc_u8Iteration++)
    158c:	19 82       	std	Y+1, r1	; 0x01
    158e:	38 c0       	rjmp	.+112    	; 0x1600 <DIO_enuGetPortZ+0x90>
	{
		DIO_enuSetPinDirection(DIO_arrPortZ[Loc_u8Iteration],DIO_u8INPUT);
    1590:	89 81       	ldd	r24, Y+1	; 0x01
    1592:	88 2f       	mov	r24, r24
    1594:	90 e0       	ldi	r25, 0x00	; 0
    1596:	fc 01       	movw	r30, r24
    1598:	e8 58       	subi	r30, 0x88	; 136
    159a:	ff 4f       	sbci	r31, 0xFF	; 255
    159c:	80 81       	ld	r24, Z
    159e:	60 e0       	ldi	r22, 0x00	; 0
    15a0:	0e 94 29 08 	call	0x1052	; 0x1052 <DIO_enuSetPinDirection>
		DIO_enuPullUp(DIO_arrPortZ[Loc_u8Iteration]);
    15a4:	89 81       	ldd	r24, Y+1	; 0x01
    15a6:	88 2f       	mov	r24, r24
    15a8:	90 e0       	ldi	r25, 0x00	; 0
    15aa:	fc 01       	movw	r30, r24
    15ac:	e8 58       	subi	r30, 0x88	; 136
    15ae:	ff 4f       	sbci	r31, 0xFF	; 255
    15b0:	80 81       	ld	r24, Z
    15b2:	0e 94 7c 09 	call	0x12f8	; 0x12f8 <DIO_enuPullUp>
		DIO_enuGetPinValue(DIO_arrPortZ[Loc_u8Iteration],&Loc_u8temp);
    15b6:	89 81       	ldd	r24, Y+1	; 0x01
    15b8:	88 2f       	mov	r24, r24
    15ba:	90 e0       	ldi	r25, 0x00	; 0
    15bc:	fc 01       	movw	r30, r24
    15be:	e8 58       	subi	r30, 0x88	; 136
    15c0:	ff 4f       	sbci	r31, 0xFF	; 255
    15c2:	80 81       	ld	r24, Z
    15c4:	9e 01       	movw	r18, r28
    15c6:	2d 5f       	subi	r18, 0xFD	; 253
    15c8:	3f 4f       	sbci	r19, 0xFF	; 255
    15ca:	b9 01       	movw	r22, r18
    15cc:	0e 94 aa 07 	call	0xf54	; 0xf54 <DIO_enuGetPinValue>
		*pu8ValueCpy |= Loc_u8temp<<Loc_u8Iteration;
    15d0:	ec 81       	ldd	r30, Y+4	; 0x04
    15d2:	fd 81       	ldd	r31, Y+5	; 0x05
    15d4:	80 81       	ld	r24, Z
    15d6:	48 2f       	mov	r20, r24
    15d8:	8b 81       	ldd	r24, Y+3	; 0x03
    15da:	28 2f       	mov	r18, r24
    15dc:	30 e0       	ldi	r19, 0x00	; 0
    15de:	89 81       	ldd	r24, Y+1	; 0x01
    15e0:	88 2f       	mov	r24, r24
    15e2:	90 e0       	ldi	r25, 0x00	; 0
    15e4:	b9 01       	movw	r22, r18
    15e6:	02 c0       	rjmp	.+4      	; 0x15ec <DIO_enuGetPortZ+0x7c>
    15e8:	66 0f       	add	r22, r22
    15ea:	77 1f       	adc	r23, r23
    15ec:	8a 95       	dec	r24
    15ee:	e2 f7       	brpl	.-8      	; 0x15e8 <DIO_enuGetPortZ+0x78>
    15f0:	cb 01       	movw	r24, r22
    15f2:	84 2b       	or	r24, r20
    15f4:	ec 81       	ldd	r30, Y+4	; 0x04
    15f6:	fd 81       	ldd	r31, Y+5	; 0x05
    15f8:	80 83       	st	Z, r24
{
	*pu8ValueCpy = 0;
	Error_Status status = OK;	
	u8 Loc_u8temp=0;
	u8 Loc_u8Iteration;
	for(Loc_u8Iteration=0;Loc_u8Iteration<8;Loc_u8Iteration++)
    15fa:	89 81       	ldd	r24, Y+1	; 0x01
    15fc:	8f 5f       	subi	r24, 0xFF	; 255
    15fe:	89 83       	std	Y+1, r24	; 0x01
    1600:	89 81       	ldd	r24, Y+1	; 0x01
    1602:	88 30       	cpi	r24, 0x08	; 8
    1604:	28 f2       	brcs	.-118    	; 0x1590 <DIO_enuGetPortZ+0x20>
		DIO_enuPullUp(DIO_arrPortZ[Loc_u8Iteration]);
		DIO_enuGetPinValue(DIO_arrPortZ[Loc_u8Iteration],&Loc_u8temp);
		*pu8ValueCpy |= Loc_u8temp<<Loc_u8Iteration;
	}
	
	return status ;
    1606:	8a 81       	ldd	r24, Y+2	; 0x02
}
    1608:	0f 90       	pop	r0
    160a:	0f 90       	pop	r0
    160c:	0f 90       	pop	r0
    160e:	0f 90       	pop	r0
    1610:	0f 90       	pop	r0
    1612:	cf 91       	pop	r28
    1614:	df 91       	pop	r29
    1616:	08 95       	ret

00001618 <DIO_enuSetPortZ>:
/** Inputs : u8ValueCpy  input value 				*/
/** Output : Error Status  							*/
/****************************************************/

Error_Status DIO_enuSetPortZ(u8 u8ValueCpy)
{
    1618:	df 93       	push	r29
    161a:	cf 93       	push	r28
    161c:	00 d0       	rcall	.+0      	; 0x161e <DIO_enuSetPortZ+0x6>
    161e:	0f 92       	push	r0
    1620:	cd b7       	in	r28, 0x3d	; 61
    1622:	de b7       	in	r29, 0x3e	; 62
    1624:	8b 83       	std	Y+3, r24	; 0x03
	Error_Status status = OK;
    1626:	1a 82       	std	Y+2, r1	; 0x02
	/*Setting the Direction*/
	u8 Loc_u8Iteration;
	for(Loc_u8Iteration=0;Loc_u8Iteration<8;Loc_u8Iteration++)
    1628:	19 82       	std	Y+1, r1	; 0x01
    162a:	33 c0       	rjmp	.+102    	; 0x1692 <DIO_enuSetPortZ+0x7a>
	{
		DIO_enuSetPinDirection(DIO_arrPortZ[Loc_u8Iteration],DIO_u8OUTPUT);
    162c:	89 81       	ldd	r24, Y+1	; 0x01
    162e:	88 2f       	mov	r24, r24
    1630:	90 e0       	ldi	r25, 0x00	; 0
    1632:	fc 01       	movw	r30, r24
    1634:	e8 58       	subi	r30, 0x88	; 136
    1636:	ff 4f       	sbci	r31, 0xFF	; 255
    1638:	80 81       	ld	r24, Z
    163a:	61 e0       	ldi	r22, 0x01	; 1
    163c:	0e 94 29 08 	call	0x1052	; 0x1052 <DIO_enuSetPinDirection>
		if(u8ValueCpy&(1<<Loc_u8Iteration))
    1640:	8b 81       	ldd	r24, Y+3	; 0x03
    1642:	28 2f       	mov	r18, r24
    1644:	30 e0       	ldi	r19, 0x00	; 0
    1646:	89 81       	ldd	r24, Y+1	; 0x01
    1648:	88 2f       	mov	r24, r24
    164a:	90 e0       	ldi	r25, 0x00	; 0
    164c:	a9 01       	movw	r20, r18
    164e:	02 c0       	rjmp	.+4      	; 0x1654 <DIO_enuSetPortZ+0x3c>
    1650:	55 95       	asr	r21
    1652:	47 95       	ror	r20
    1654:	8a 95       	dec	r24
    1656:	e2 f7       	brpl	.-8      	; 0x1650 <DIO_enuSetPortZ+0x38>
    1658:	ca 01       	movw	r24, r20
    165a:	81 70       	andi	r24, 0x01	; 1
    165c:	90 70       	andi	r25, 0x00	; 0
    165e:	88 23       	and	r24, r24
    1660:	59 f0       	breq	.+22     	; 0x1678 <DIO_enuSetPortZ+0x60>
		{
			DIO_enuSetPinValue(DIO_arrPortZ[Loc_u8Iteration],DIO_u8HIGH);
    1662:	89 81       	ldd	r24, Y+1	; 0x01
    1664:	88 2f       	mov	r24, r24
    1666:	90 e0       	ldi	r25, 0x00	; 0
    1668:	fc 01       	movw	r30, r24
    166a:	e8 58       	subi	r30, 0x88	; 136
    166c:	ff 4f       	sbci	r31, 0xFF	; 255
    166e:	80 81       	ld	r24, Z
    1670:	61 e0       	ldi	r22, 0x01	; 1
    1672:	0e 94 ca 06 	call	0xd94	; 0xd94 <DIO_enuSetPinValue>
    1676:	0a c0       	rjmp	.+20     	; 0x168c <DIO_enuSetPortZ+0x74>
		}
		else
		{
			DIO_enuSetPinValue(DIO_arrPortZ[Loc_u8Iteration],DIO_u8LOW);
    1678:	89 81       	ldd	r24, Y+1	; 0x01
    167a:	88 2f       	mov	r24, r24
    167c:	90 e0       	ldi	r25, 0x00	; 0
    167e:	fc 01       	movw	r30, r24
    1680:	e8 58       	subi	r30, 0x88	; 136
    1682:	ff 4f       	sbci	r31, 0xFF	; 255
    1684:	80 81       	ld	r24, Z
    1686:	60 e0       	ldi	r22, 0x00	; 0
    1688:	0e 94 ca 06 	call	0xd94	; 0xd94 <DIO_enuSetPinValue>
Error_Status DIO_enuSetPortZ(u8 u8ValueCpy)
{
	Error_Status status = OK;
	/*Setting the Direction*/
	u8 Loc_u8Iteration;
	for(Loc_u8Iteration=0;Loc_u8Iteration<8;Loc_u8Iteration++)
    168c:	89 81       	ldd	r24, Y+1	; 0x01
    168e:	8f 5f       	subi	r24, 0xFF	; 255
    1690:	89 83       	std	Y+1, r24	; 0x01
    1692:	89 81       	ldd	r24, Y+1	; 0x01
    1694:	88 30       	cpi	r24, 0x08	; 8
    1696:	50 f2       	brcs	.-108    	; 0x162c <DIO_enuSetPortZ+0x14>
		else
		{
			DIO_enuSetPinValue(DIO_arrPortZ[Loc_u8Iteration],DIO_u8LOW);
		}
	}
	return status;
    1698:	8a 81       	ldd	r24, Y+2	; 0x02
	}
    169a:	0f 90       	pop	r0
    169c:	0f 90       	pop	r0
    169e:	0f 90       	pop	r0
    16a0:	cf 91       	pop	r28
    16a2:	df 91       	pop	r29
    16a4:	08 95       	ret

000016a6 <Set_Port_Direction>:


//////////////////////////////////////////////////////////
void Set_Port_Direction(u8 port_index,u8 Direction)
{	u8 res=PORT_INPUT ;
    16a6:	df 93       	push	r29
    16a8:	cf 93       	push	r28
    16aa:	00 d0       	rcall	.+0      	; 0x16ac <Set_Port_Direction+0x6>
    16ac:	00 d0       	rcall	.+0      	; 0x16ae <Set_Port_Direction+0x8>
    16ae:	0f 92       	push	r0
    16b0:	cd b7       	in	r28, 0x3d	; 61
    16b2:	de b7       	in	r29, 0x3e	; 62
    16b4:	8a 83       	std	Y+2, r24	; 0x02
    16b6:	6b 83       	std	Y+3, r22	; 0x03
    16b8:	19 82       	std	Y+1, r1	; 0x01
	if(Direction== PORT_OUTPUT )
    16ba:	8b 81       	ldd	r24, Y+3	; 0x03
    16bc:	8f 3f       	cpi	r24, 0xFF	; 255
    16be:	11 f4       	brne	.+4      	; 0x16c4 <Set_Port_Direction+0x1e>
	{
		res = PORT_OUTPUT;
    16c0:	8f ef       	ldi	r24, 0xFF	; 255
    16c2:	89 83       	std	Y+1, r24	; 0x01
	}
	switch (port_index)
    16c4:	8a 81       	ldd	r24, Y+2	; 0x02
    16c6:	28 2f       	mov	r18, r24
    16c8:	30 e0       	ldi	r19, 0x00	; 0
    16ca:	3d 83       	std	Y+5, r19	; 0x05
    16cc:	2c 83       	std	Y+4, r18	; 0x04
    16ce:	8c 81       	ldd	r24, Y+4	; 0x04
    16d0:	9d 81       	ldd	r25, Y+5	; 0x05
    16d2:	81 30       	cpi	r24, 0x01	; 1
    16d4:	91 05       	cpc	r25, r1
    16d6:	d1 f0       	breq	.+52     	; 0x170c <Set_Port_Direction+0x66>
    16d8:	2c 81       	ldd	r18, Y+4	; 0x04
    16da:	3d 81       	ldd	r19, Y+5	; 0x05
    16dc:	22 30       	cpi	r18, 0x02	; 2
    16de:	31 05       	cpc	r19, r1
    16e0:	2c f4       	brge	.+10     	; 0x16ec <Set_Port_Direction+0x46>
    16e2:	8c 81       	ldd	r24, Y+4	; 0x04
    16e4:	9d 81       	ldd	r25, Y+5	; 0x05
    16e6:	00 97       	sbiw	r24, 0x00	; 0
    16e8:	61 f0       	breq	.+24     	; 0x1702 <Set_Port_Direction+0x5c>
    16ea:	1e c0       	rjmp	.+60     	; 0x1728 <Set_Port_Direction+0x82>
    16ec:	2c 81       	ldd	r18, Y+4	; 0x04
    16ee:	3d 81       	ldd	r19, Y+5	; 0x05
    16f0:	22 30       	cpi	r18, 0x02	; 2
    16f2:	31 05       	cpc	r19, r1
    16f4:	81 f0       	breq	.+32     	; 0x1716 <Set_Port_Direction+0x70>
    16f6:	8c 81       	ldd	r24, Y+4	; 0x04
    16f8:	9d 81       	ldd	r25, Y+5	; 0x05
    16fa:	83 30       	cpi	r24, 0x03	; 3
    16fc:	91 05       	cpc	r25, r1
    16fe:	81 f0       	breq	.+32     	; 0x1720 <Set_Port_Direction+0x7a>
    1700:	13 c0       	rjmp	.+38     	; 0x1728 <Set_Port_Direction+0x82>
	{
		case PORTA_DIO:
			DDRA = res;
    1702:	ea e3       	ldi	r30, 0x3A	; 58
    1704:	f0 e0       	ldi	r31, 0x00	; 0
    1706:	89 81       	ldd	r24, Y+1	; 0x01
    1708:	80 83       	st	Z, r24
    170a:	0e c0       	rjmp	.+28     	; 0x1728 <Set_Port_Direction+0x82>
			break;
		case PORTB_DIO:
			DDRB=res;
    170c:	e7 e3       	ldi	r30, 0x37	; 55
    170e:	f0 e0       	ldi	r31, 0x00	; 0
    1710:	89 81       	ldd	r24, Y+1	; 0x01
    1712:	80 83       	st	Z, r24
    1714:	09 c0       	rjmp	.+18     	; 0x1728 <Set_Port_Direction+0x82>
			break;
		case PORTC_DIO:
			DDRC = res;
    1716:	e4 e3       	ldi	r30, 0x34	; 52
    1718:	f0 e0       	ldi	r31, 0x00	; 0
    171a:	89 81       	ldd	r24, Y+1	; 0x01
    171c:	80 83       	st	Z, r24
    171e:	04 c0       	rjmp	.+8      	; 0x1728 <Set_Port_Direction+0x82>
			break;
		case PORTD_DIO:
			DDRD=res;
    1720:	e1 e3       	ldi	r30, 0x31	; 49
    1722:	f0 e0       	ldi	r31, 0x00	; 0
    1724:	89 81       	ldd	r24, Y+1	; 0x01
    1726:	80 83       	st	Z, r24
			break;
	}
}
    1728:	0f 90       	pop	r0
    172a:	0f 90       	pop	r0
    172c:	0f 90       	pop	r0
    172e:	0f 90       	pop	r0
    1730:	0f 90       	pop	r0
    1732:	cf 91       	pop	r28
    1734:	df 91       	pop	r29
    1736:	08 95       	ret

00001738 <Set_Port_Value>:
void Set_Port_Value	(u8 port_index,u8 value)
{
    1738:	df 93       	push	r29
    173a:	cf 93       	push	r28
    173c:	00 d0       	rcall	.+0      	; 0x173e <Set_Port_Value+0x6>
    173e:	00 d0       	rcall	.+0      	; 0x1740 <Set_Port_Value+0x8>
    1740:	cd b7       	in	r28, 0x3d	; 61
    1742:	de b7       	in	r29, 0x3e	; 62
    1744:	89 83       	std	Y+1, r24	; 0x01
    1746:	6a 83       	std	Y+2, r22	; 0x02
	switch (port_index)
    1748:	89 81       	ldd	r24, Y+1	; 0x01
    174a:	28 2f       	mov	r18, r24
    174c:	30 e0       	ldi	r19, 0x00	; 0
    174e:	3c 83       	std	Y+4, r19	; 0x04
    1750:	2b 83       	std	Y+3, r18	; 0x03
    1752:	8b 81       	ldd	r24, Y+3	; 0x03
    1754:	9c 81       	ldd	r25, Y+4	; 0x04
    1756:	81 30       	cpi	r24, 0x01	; 1
    1758:	91 05       	cpc	r25, r1
    175a:	d1 f0       	breq	.+52     	; 0x1790 <Set_Port_Value+0x58>
    175c:	2b 81       	ldd	r18, Y+3	; 0x03
    175e:	3c 81       	ldd	r19, Y+4	; 0x04
    1760:	22 30       	cpi	r18, 0x02	; 2
    1762:	31 05       	cpc	r19, r1
    1764:	2c f4       	brge	.+10     	; 0x1770 <Set_Port_Value+0x38>
    1766:	8b 81       	ldd	r24, Y+3	; 0x03
    1768:	9c 81       	ldd	r25, Y+4	; 0x04
    176a:	00 97       	sbiw	r24, 0x00	; 0
    176c:	61 f0       	breq	.+24     	; 0x1786 <Set_Port_Value+0x4e>
    176e:	1e c0       	rjmp	.+60     	; 0x17ac <Set_Port_Value+0x74>
    1770:	2b 81       	ldd	r18, Y+3	; 0x03
    1772:	3c 81       	ldd	r19, Y+4	; 0x04
    1774:	22 30       	cpi	r18, 0x02	; 2
    1776:	31 05       	cpc	r19, r1
    1778:	81 f0       	breq	.+32     	; 0x179a <Set_Port_Value+0x62>
    177a:	8b 81       	ldd	r24, Y+3	; 0x03
    177c:	9c 81       	ldd	r25, Y+4	; 0x04
    177e:	83 30       	cpi	r24, 0x03	; 3
    1780:	91 05       	cpc	r25, r1
    1782:	81 f0       	breq	.+32     	; 0x17a4 <Set_Port_Value+0x6c>
    1784:	13 c0       	rjmp	.+38     	; 0x17ac <Set_Port_Value+0x74>
	{
		case PORTA_DIO:
			PORTA=value;
    1786:	eb e3       	ldi	r30, 0x3B	; 59
    1788:	f0 e0       	ldi	r31, 0x00	; 0
    178a:	8a 81       	ldd	r24, Y+2	; 0x02
    178c:	80 83       	st	Z, r24
    178e:	0e c0       	rjmp	.+28     	; 0x17ac <Set_Port_Value+0x74>
			break;
		case PORTB_DIO:
			PORTB=value;
    1790:	e8 e3       	ldi	r30, 0x38	; 56
    1792:	f0 e0       	ldi	r31, 0x00	; 0
    1794:	8a 81       	ldd	r24, Y+2	; 0x02
    1796:	80 83       	st	Z, r24
    1798:	09 c0       	rjmp	.+18     	; 0x17ac <Set_Port_Value+0x74>
			break;
		case PORTC_DIO:
			PORTC=value;
    179a:	e5 e3       	ldi	r30, 0x35	; 53
    179c:	f0 e0       	ldi	r31, 0x00	; 0
    179e:	8a 81       	ldd	r24, Y+2	; 0x02
    17a0:	80 83       	st	Z, r24
    17a2:	04 c0       	rjmp	.+8      	; 0x17ac <Set_Port_Value+0x74>
			break;
		case PORTD_DIO:
			PORTD=value;
    17a4:	e2 e3       	ldi	r30, 0x32	; 50
    17a6:	f0 e0       	ldi	r31, 0x00	; 0
    17a8:	8a 81       	ldd	r24, Y+2	; 0x02
    17aa:	80 83       	st	Z, r24
			break;
	}
}
    17ac:	0f 90       	pop	r0
    17ae:	0f 90       	pop	r0
    17b0:	0f 90       	pop	r0
    17b2:	0f 90       	pop	r0
    17b4:	cf 91       	pop	r28
    17b6:	df 91       	pop	r29
    17b8:	08 95       	ret

000017ba <vid_SetLCDPins>:
#include "LCD_cfg.h"
#include "LCD_priv.h"
extern LCDNumber LCDNb[LCD_NUMBER];

void vid_SetLCDPins(LCDNumber* PstructLCDNbCpy , u16 u16NumCpy )
{
    17ba:	df 93       	push	r29
    17bc:	cf 93       	push	r28
    17be:	00 d0       	rcall	.+0      	; 0x17c0 <vid_SetLCDPins+0x6>
    17c0:	00 d0       	rcall	.+0      	; 0x17c2 <vid_SetLCDPins+0x8>
    17c2:	cd b7       	in	r28, 0x3d	; 61
    17c4:	de b7       	in	r29, 0x3e	; 62
    17c6:	9a 83       	std	Y+2, r25	; 0x02
    17c8:	89 83       	std	Y+1, r24	; 0x01
    17ca:	7c 83       	std	Y+4, r23	; 0x04
    17cc:	6b 83       	std	Y+3, r22	; 0x03



	PstructLCDNbCpy[0].RS=	DIO_u8PIN_26;
    17ce:	e9 81       	ldd	r30, Y+1	; 0x01
    17d0:	fa 81       	ldd	r31, Y+2	; 0x02
    17d2:	8a e1       	ldi	r24, 0x1A	; 26
    17d4:	80 83       	st	Z, r24
	PstructLCDNbCpy[0].RW=	DIO_u8PIN_25;
    17d6:	e9 81       	ldd	r30, Y+1	; 0x01
    17d8:	fa 81       	ldd	r31, Y+2	; 0x02
    17da:	89 e1       	ldi	r24, 0x19	; 25
    17dc:	81 83       	std	Z+1, r24	; 0x01
	PstructLCDNbCpy[0].E =	DIO_u8PIN_24;
    17de:	e9 81       	ldd	r30, Y+1	; 0x01
    17e0:	fa 81       	ldd	r31, Y+2	; 0x02
    17e2:	88 e1       	ldi	r24, 0x18	; 24
    17e4:	82 83       	std	Z+2, r24	; 0x02
	PstructLCDNbCpy[0].Data[0]=DIO_u8PIN_23;
    17e6:	e9 81       	ldd	r30, Y+1	; 0x01
    17e8:	fa 81       	ldd	r31, Y+2	; 0x02
    17ea:	87 e1       	ldi	r24, 0x17	; 23
    17ec:	83 83       	std	Z+3, r24	; 0x03
	PstructLCDNbCpy[0].Data[1]=DIO_u8PIN_22;
    17ee:	e9 81       	ldd	r30, Y+1	; 0x01
    17f0:	fa 81       	ldd	r31, Y+2	; 0x02
    17f2:	86 e1       	ldi	r24, 0x16	; 22
    17f4:	84 83       	std	Z+4, r24	; 0x04
	PstructLCDNbCpy[0].Data[2]=DIO_u8PIN_21;
    17f6:	e9 81       	ldd	r30, Y+1	; 0x01
    17f8:	fa 81       	ldd	r31, Y+2	; 0x02
    17fa:	85 e1       	ldi	r24, 0x15	; 21
    17fc:	85 83       	std	Z+5, r24	; 0x05
	PstructLCDNbCpy[0].Data[3]=DIO_u8PIN_20;
    17fe:	e9 81       	ldd	r30, Y+1	; 0x01
    1800:	fa 81       	ldd	r31, Y+2	; 0x02
    1802:	84 e1       	ldi	r24, 0x14	; 20
    1804:	86 83       	std	Z+6, r24	; 0x06
	PstructLCDNbCpy[0].Data[4]=DIO_u8PIN_19;
    1806:	e9 81       	ldd	r30, Y+1	; 0x01
    1808:	fa 81       	ldd	r31, Y+2	; 0x02
    180a:	83 e1       	ldi	r24, 0x13	; 19
    180c:	87 83       	std	Z+7, r24	; 0x07
	PstructLCDNbCpy[0].Data[5]=DIO_u8PIN_18;
    180e:	e9 81       	ldd	r30, Y+1	; 0x01
    1810:	fa 81       	ldd	r31, Y+2	; 0x02
    1812:	82 e1       	ldi	r24, 0x12	; 18
    1814:	80 87       	std	Z+8, r24	; 0x08
	PstructLCDNbCpy[0].Data[6]=DIO_u8PIN_17;
    1816:	e9 81       	ldd	r30, Y+1	; 0x01
    1818:	fa 81       	ldd	r31, Y+2	; 0x02
    181a:	81 e1       	ldi	r24, 0x11	; 17
    181c:	81 87       	std	Z+9, r24	; 0x09
	PstructLCDNbCpy[0].Data[7]=DIO_u8PIN_16;
    181e:	e9 81       	ldd	r30, Y+1	; 0x01
    1820:	fa 81       	ldd	r31, Y+2	; 0x02
    1822:	80 e1       	ldi	r24, 0x10	; 16
    1824:	82 87       	std	Z+10, r24	; 0x0a


	PstructLCDNbCpy[1].RS=DIO_u8PIN_26;
    1826:	89 81       	ldd	r24, Y+1	; 0x01
    1828:	9a 81       	ldd	r25, Y+2	; 0x02
    182a:	fc 01       	movw	r30, r24
    182c:	3b 96       	adiw	r30, 0x0b	; 11
    182e:	8a e1       	ldi	r24, 0x1A	; 26
    1830:	80 83       	st	Z, r24
	PstructLCDNbCpy[1].RW=DIO_u8PIN_25;
    1832:	89 81       	ldd	r24, Y+1	; 0x01
    1834:	9a 81       	ldd	r25, Y+2	; 0x02
    1836:	fc 01       	movw	r30, r24
    1838:	3b 96       	adiw	r30, 0x0b	; 11
    183a:	89 e1       	ldi	r24, 0x19	; 25
    183c:	81 83       	std	Z+1, r24	; 0x01
	PstructLCDNbCpy[1].E =DIO_u8PIN_24;
    183e:	89 81       	ldd	r24, Y+1	; 0x01
    1840:	9a 81       	ldd	r25, Y+2	; 0x02
    1842:	fc 01       	movw	r30, r24
    1844:	3b 96       	adiw	r30, 0x0b	; 11
    1846:	88 e1       	ldi	r24, 0x18	; 24
    1848:	82 83       	std	Z+2, r24	; 0x02
	PstructLCDNbCpy[1].Data[0]=DIO_u8PIN_23;
    184a:	89 81       	ldd	r24, Y+1	; 0x01
    184c:	9a 81       	ldd	r25, Y+2	; 0x02
    184e:	fc 01       	movw	r30, r24
    1850:	3b 96       	adiw	r30, 0x0b	; 11
    1852:	87 e1       	ldi	r24, 0x17	; 23
    1854:	83 83       	std	Z+3, r24	; 0x03
	PstructLCDNbCpy[1].Data[1]=DIO_u8PIN_22;
    1856:	89 81       	ldd	r24, Y+1	; 0x01
    1858:	9a 81       	ldd	r25, Y+2	; 0x02
    185a:	fc 01       	movw	r30, r24
    185c:	3b 96       	adiw	r30, 0x0b	; 11
    185e:	86 e1       	ldi	r24, 0x16	; 22
    1860:	84 83       	std	Z+4, r24	; 0x04
	PstructLCDNbCpy[1].Data[2]=DIO_u8PIN_21;
    1862:	89 81       	ldd	r24, Y+1	; 0x01
    1864:	9a 81       	ldd	r25, Y+2	; 0x02
    1866:	fc 01       	movw	r30, r24
    1868:	3b 96       	adiw	r30, 0x0b	; 11
    186a:	85 e1       	ldi	r24, 0x15	; 21
    186c:	85 83       	std	Z+5, r24	; 0x05
	PstructLCDNbCpy[1].Data[3]=DIO_u8PIN_20;
    186e:	89 81       	ldd	r24, Y+1	; 0x01
    1870:	9a 81       	ldd	r25, Y+2	; 0x02
    1872:	fc 01       	movw	r30, r24
    1874:	3b 96       	adiw	r30, 0x0b	; 11
    1876:	84 e1       	ldi	r24, 0x14	; 20
    1878:	86 83       	std	Z+6, r24	; 0x06
	PstructLCDNbCpy[1].Data[4]=DIO_u8PIN_19;
    187a:	89 81       	ldd	r24, Y+1	; 0x01
    187c:	9a 81       	ldd	r25, Y+2	; 0x02
    187e:	fc 01       	movw	r30, r24
    1880:	3b 96       	adiw	r30, 0x0b	; 11
    1882:	83 e1       	ldi	r24, 0x13	; 19
    1884:	87 83       	std	Z+7, r24	; 0x07
	PstructLCDNbCpy[1].Data[5]=	DIO_u8PIN_18;
    1886:	89 81       	ldd	r24, Y+1	; 0x01
    1888:	9a 81       	ldd	r25, Y+2	; 0x02
    188a:	fc 01       	movw	r30, r24
    188c:	3b 96       	adiw	r30, 0x0b	; 11
    188e:	82 e1       	ldi	r24, 0x12	; 18
    1890:	80 87       	std	Z+8, r24	; 0x08
	PstructLCDNbCpy[1].Data[6]=	DIO_u8PIN_17;
    1892:	89 81       	ldd	r24, Y+1	; 0x01
    1894:	9a 81       	ldd	r25, Y+2	; 0x02
    1896:	fc 01       	movw	r30, r24
    1898:	3b 96       	adiw	r30, 0x0b	; 11
    189a:	81 e1       	ldi	r24, 0x11	; 17
    189c:	81 87       	std	Z+9, r24	; 0x09
	PstructLCDNbCpy[1].Data[7]=	DIO_u8PIN_16;
    189e:	89 81       	ldd	r24, Y+1	; 0x01
    18a0:	9a 81       	ldd	r25, Y+2	; 0x02
    18a2:	fc 01       	movw	r30, r24
    18a4:	3b 96       	adiw	r30, 0x0b	; 11
    18a6:	80 e1       	ldi	r24, 0x10	; 16
    18a8:	82 87       	std	Z+10, r24	; 0x0a

}
    18aa:	0f 90       	pop	r0
    18ac:	0f 90       	pop	r0
    18ae:	0f 90       	pop	r0
    18b0:	0f 90       	pop	r0
    18b2:	cf 91       	pop	r28
    18b4:	df 91       	pop	r29
    18b6:	08 95       	ret

000018b8 <LCD_enuSetLCD>:
*/

LCDNumber LCDNb[LCD_NUMBER];

Error_Status LCD_enuSetLCD()
{	Error_Status status=OK;
    18b8:	df 93       	push	r29
    18ba:	cf 93       	push	r28
    18bc:	0f 92       	push	r0
    18be:	cd b7       	in	r28, 0x3d	; 61
    18c0:	de b7       	in	r29, 0x3e	; 62
    18c2:	19 82       	std	Y+1, r1	; 0x01
	vid_SetLCDPins(LCDNb,LCD_NUMBER);
    18c4:	80 e8       	ldi	r24, 0x80	; 128
    18c6:	90 e0       	ldi	r25, 0x00	; 0
    18c8:	62 e0       	ldi	r22, 0x02	; 2
    18ca:	70 e0       	ldi	r23, 0x00	; 0
    18cc:	0e 94 dd 0b 	call	0x17ba	; 0x17ba <vid_SetLCDPins>
	return status;
    18d0:	89 81       	ldd	r24, Y+1	; 0x01
}
    18d2:	0f 90       	pop	r0
    18d4:	cf 91       	pop	r28
    18d6:	df 91       	pop	r29
    18d8:	08 95       	ret

000018da <LCD_enuInit>:


Error_Status LCD_enuInit(u8 u8LCDNmCpy)
{
    18da:	0f 93       	push	r16
    18dc:	1f 93       	push	r17
    18de:	df 93       	push	r29
    18e0:	cf 93       	push	r28
    18e2:	cd b7       	in	r28, 0x3d	; 61
    18e4:	de b7       	in	r29, 0x3e	; 62
    18e6:	cf 54       	subi	r28, 0x4F	; 79
    18e8:	d0 40       	sbci	r29, 0x00	; 0
    18ea:	0f b6       	in	r0, 0x3f	; 63
    18ec:	f8 94       	cli
    18ee:	de bf       	out	0x3e, r29	; 62
    18f0:	0f be       	out	0x3f, r0	; 63
    18f2:	cd bf       	out	0x3d, r28	; 61
    18f4:	fe 01       	movw	r30, r28
    18f6:	e1 5b       	subi	r30, 0xB1	; 177
    18f8:	ff 4f       	sbci	r31, 0xFF	; 255
    18fa:	80 83       	st	Z, r24
	Error_Status status = OK;
    18fc:	fe 01       	movw	r30, r28
    18fe:	e2 5b       	subi	r30, 0xB2	; 178
    1900:	ff 4f       	sbci	r31, 0xFF	; 255
    1902:	10 82       	st	Z, r1

	u8 Loc_u8Iteration;

	/*Setting Direction*/
	DIO_enuSetPinDirection(LCDNb[u8LCDNmCpy].E,DIO_u8OUTPUT);
    1904:	fe 01       	movw	r30, r28
    1906:	e1 5b       	subi	r30, 0xB1	; 177
    1908:	ff 4f       	sbci	r31, 0xFF	; 255
    190a:	80 81       	ld	r24, Z
    190c:	48 2f       	mov	r20, r24
    190e:	50 e0       	ldi	r21, 0x00	; 0
    1910:	ca 01       	movw	r24, r20
    1912:	88 0f       	add	r24, r24
    1914:	99 1f       	adc	r25, r25
    1916:	9c 01       	movw	r18, r24
    1918:	22 0f       	add	r18, r18
    191a:	33 1f       	adc	r19, r19
    191c:	22 0f       	add	r18, r18
    191e:	33 1f       	adc	r19, r19
    1920:	82 0f       	add	r24, r18
    1922:	93 1f       	adc	r25, r19
    1924:	84 0f       	add	r24, r20
    1926:	95 1f       	adc	r25, r21
    1928:	fc 01       	movw	r30, r24
    192a:	ee 57       	subi	r30, 0x7E	; 126
    192c:	ff 4f       	sbci	r31, 0xFF	; 255
    192e:	80 81       	ld	r24, Z
    1930:	61 e0       	ldi	r22, 0x01	; 1
    1932:	0e 94 29 08 	call	0x1052	; 0x1052 <DIO_enuSetPinDirection>
	DIO_enuSetPinDirection(LCDNb[u8LCDNmCpy].RW,DIO_u8OUTPUT);
    1936:	fe 01       	movw	r30, r28
    1938:	e1 5b       	subi	r30, 0xB1	; 177
    193a:	ff 4f       	sbci	r31, 0xFF	; 255
    193c:	80 81       	ld	r24, Z
    193e:	48 2f       	mov	r20, r24
    1940:	50 e0       	ldi	r21, 0x00	; 0
    1942:	ca 01       	movw	r24, r20
    1944:	88 0f       	add	r24, r24
    1946:	99 1f       	adc	r25, r25
    1948:	9c 01       	movw	r18, r24
    194a:	22 0f       	add	r18, r18
    194c:	33 1f       	adc	r19, r19
    194e:	22 0f       	add	r18, r18
    1950:	33 1f       	adc	r19, r19
    1952:	82 0f       	add	r24, r18
    1954:	93 1f       	adc	r25, r19
    1956:	84 0f       	add	r24, r20
    1958:	95 1f       	adc	r25, r21
    195a:	fc 01       	movw	r30, r24
    195c:	ef 57       	subi	r30, 0x7F	; 127
    195e:	ff 4f       	sbci	r31, 0xFF	; 255
    1960:	80 81       	ld	r24, Z
    1962:	61 e0       	ldi	r22, 0x01	; 1
    1964:	0e 94 29 08 	call	0x1052	; 0x1052 <DIO_enuSetPinDirection>
	DIO_enuSetPinDirection(LCDNb[u8LCDNmCpy].RS,DIO_u8OUTPUT);
    1968:	fe 01       	movw	r30, r28
    196a:	e1 5b       	subi	r30, 0xB1	; 177
    196c:	ff 4f       	sbci	r31, 0xFF	; 255
    196e:	80 81       	ld	r24, Z
    1970:	48 2f       	mov	r20, r24
    1972:	50 e0       	ldi	r21, 0x00	; 0
    1974:	ca 01       	movw	r24, r20
    1976:	88 0f       	add	r24, r24
    1978:	99 1f       	adc	r25, r25
    197a:	9c 01       	movw	r18, r24
    197c:	22 0f       	add	r18, r18
    197e:	33 1f       	adc	r19, r19
    1980:	22 0f       	add	r18, r18
    1982:	33 1f       	adc	r19, r19
    1984:	82 0f       	add	r24, r18
    1986:	93 1f       	adc	r25, r19
    1988:	84 0f       	add	r24, r20
    198a:	95 1f       	adc	r25, r21
    198c:	fc 01       	movw	r30, r24
    198e:	e0 58       	subi	r30, 0x80	; 128
    1990:	ff 4f       	sbci	r31, 0xFF	; 255
    1992:	80 81       	ld	r24, Z
    1994:	61 e0       	ldi	r22, 0x01	; 1
    1996:	0e 94 29 08 	call	0x1052	; 0x1052 <DIO_enuSetPinDirection>
	for(Loc_u8Iteration=0;Loc_u8Iteration<8;Loc_u8Iteration++)
    199a:	fe 01       	movw	r30, r28
    199c:	e3 5b       	subi	r30, 0xB3	; 179
    199e:	ff 4f       	sbci	r31, 0xFF	; 255
    19a0:	10 82       	st	Z, r1
    19a2:	2a c0       	rjmp	.+84     	; 0x19f8 <LCD_enuInit+0x11e>
	{
		DIO_enuSetPinDirection(LCDNb[u8LCDNmCpy].Data[Loc_u8Iteration],DIO_u8OUTPUT);
    19a4:	fe 01       	movw	r30, r28
    19a6:	e1 5b       	subi	r30, 0xB1	; 177
    19a8:	ff 4f       	sbci	r31, 0xFF	; 255
    19aa:	80 81       	ld	r24, Z
    19ac:	48 2f       	mov	r20, r24
    19ae:	50 e0       	ldi	r21, 0x00	; 0
    19b0:	fe 01       	movw	r30, r28
    19b2:	e3 5b       	subi	r30, 0xB3	; 179
    19b4:	ff 4f       	sbci	r31, 0xFF	; 255
    19b6:	80 81       	ld	r24, Z
    19b8:	68 2f       	mov	r22, r24
    19ba:	70 e0       	ldi	r23, 0x00	; 0
    19bc:	ca 01       	movw	r24, r20
    19be:	88 0f       	add	r24, r24
    19c0:	99 1f       	adc	r25, r25
    19c2:	9c 01       	movw	r18, r24
    19c4:	22 0f       	add	r18, r18
    19c6:	33 1f       	adc	r19, r19
    19c8:	22 0f       	add	r18, r18
    19ca:	33 1f       	adc	r19, r19
    19cc:	82 0f       	add	r24, r18
    19ce:	93 1f       	adc	r25, r19
    19d0:	84 0f       	add	r24, r20
    19d2:	95 1f       	adc	r25, r21
    19d4:	86 0f       	add	r24, r22
    19d6:	97 1f       	adc	r25, r23
    19d8:	fc 01       	movw	r30, r24
    19da:	ed 57       	subi	r30, 0x7D	; 125
    19dc:	ff 4f       	sbci	r31, 0xFF	; 255
    19de:	80 81       	ld	r24, Z
    19e0:	61 e0       	ldi	r22, 0x01	; 1
    19e2:	0e 94 29 08 	call	0x1052	; 0x1052 <DIO_enuSetPinDirection>

	/*Setting Direction*/
	DIO_enuSetPinDirection(LCDNb[u8LCDNmCpy].E,DIO_u8OUTPUT);
	DIO_enuSetPinDirection(LCDNb[u8LCDNmCpy].RW,DIO_u8OUTPUT);
	DIO_enuSetPinDirection(LCDNb[u8LCDNmCpy].RS,DIO_u8OUTPUT);
	for(Loc_u8Iteration=0;Loc_u8Iteration<8;Loc_u8Iteration++)
    19e6:	de 01       	movw	r26, r28
    19e8:	a3 5b       	subi	r26, 0xB3	; 179
    19ea:	bf 4f       	sbci	r27, 0xFF	; 255
    19ec:	fe 01       	movw	r30, r28
    19ee:	e3 5b       	subi	r30, 0xB3	; 179
    19f0:	ff 4f       	sbci	r31, 0xFF	; 255
    19f2:	80 81       	ld	r24, Z
    19f4:	8f 5f       	subi	r24, 0xFF	; 255
    19f6:	8c 93       	st	X, r24
    19f8:	fe 01       	movw	r30, r28
    19fa:	e3 5b       	subi	r30, 0xB3	; 179
    19fc:	ff 4f       	sbci	r31, 0xFF	; 255
    19fe:	80 81       	ld	r24, Z
    1a00:	88 30       	cpi	r24, 0x08	; 8
    1a02:	80 f2       	brcs	.-96     	; 0x19a4 <LCD_enuInit+0xca>
	{
		DIO_enuSetPinDirection(LCDNb[u8LCDNmCpy].Data[Loc_u8Iteration],DIO_u8OUTPUT);
	}

	DIO_enuSetPinValue(LCDNb[u8LCDNmCpy].E,DIO_u8LOW);	/*set E pin LOW*/
    1a04:	fe 01       	movw	r30, r28
    1a06:	e1 5b       	subi	r30, 0xB1	; 177
    1a08:	ff 4f       	sbci	r31, 0xFF	; 255
    1a0a:	80 81       	ld	r24, Z
    1a0c:	48 2f       	mov	r20, r24
    1a0e:	50 e0       	ldi	r21, 0x00	; 0
    1a10:	ca 01       	movw	r24, r20
    1a12:	88 0f       	add	r24, r24
    1a14:	99 1f       	adc	r25, r25
    1a16:	9c 01       	movw	r18, r24
    1a18:	22 0f       	add	r18, r18
    1a1a:	33 1f       	adc	r19, r19
    1a1c:	22 0f       	add	r18, r18
    1a1e:	33 1f       	adc	r19, r19
    1a20:	82 0f       	add	r24, r18
    1a22:	93 1f       	adc	r25, r19
    1a24:	84 0f       	add	r24, r20
    1a26:	95 1f       	adc	r25, r21
    1a28:	fc 01       	movw	r30, r24
    1a2a:	ee 57       	subi	r30, 0x7E	; 126
    1a2c:	ff 4f       	sbci	r31, 0xFF	; 255
    1a2e:	80 81       	ld	r24, Z
    1a30:	60 e0       	ldi	r22, 0x00	; 0
    1a32:	0e 94 ca 06 	call	0xd94	; 0xd94 <DIO_enuSetPinValue>
    1a36:	fe 01       	movw	r30, r28
    1a38:	e7 5b       	subi	r30, 0xB7	; 183
    1a3a:	ff 4f       	sbci	r31, 0xFF	; 255
    1a3c:	80 e0       	ldi	r24, 0x00	; 0
    1a3e:	90 e0       	ldi	r25, 0x00	; 0
    1a40:	a0 ef       	ldi	r26, 0xF0	; 240
    1a42:	b1 e4       	ldi	r27, 0x41	; 65
    1a44:	80 83       	st	Z, r24
    1a46:	91 83       	std	Z+1, r25	; 0x01
    1a48:	a2 83       	std	Z+2, r26	; 0x02
    1a4a:	b3 83       	std	Z+3, r27	; 0x03
 */
void
_delay_ms(double __ms)
{
	uint16_t __ticks;
	double __tmp = ((F_CPU) / 4e3) * __ms;
    1a4c:	8e 01       	movw	r16, r28
    1a4e:	0b 5b       	subi	r16, 0xBB	; 187
    1a50:	1f 4f       	sbci	r17, 0xFF	; 255
    1a52:	fe 01       	movw	r30, r28
    1a54:	e7 5b       	subi	r30, 0xB7	; 183
    1a56:	ff 4f       	sbci	r31, 0xFF	; 255
    1a58:	60 81       	ld	r22, Z
    1a5a:	71 81       	ldd	r23, Z+1	; 0x01
    1a5c:	82 81       	ldd	r24, Z+2	; 0x02
    1a5e:	93 81       	ldd	r25, Z+3	; 0x03
    1a60:	20 e0       	ldi	r18, 0x00	; 0
    1a62:	30 e0       	ldi	r19, 0x00	; 0
    1a64:	4a ef       	ldi	r20, 0xFA	; 250
    1a66:	54 e4       	ldi	r21, 0x44	; 68
    1a68:	0e 94 1f 02 	call	0x43e	; 0x43e <__mulsf3>
    1a6c:	dc 01       	movw	r26, r24
    1a6e:	cb 01       	movw	r24, r22
    1a70:	f8 01       	movw	r30, r16
    1a72:	80 83       	st	Z, r24
    1a74:	91 83       	std	Z+1, r25	; 0x01
    1a76:	a2 83       	std	Z+2, r26	; 0x02
    1a78:	b3 83       	std	Z+3, r27	; 0x03
	if (__tmp < 1.0)
    1a7a:	fe 01       	movw	r30, r28
    1a7c:	eb 5b       	subi	r30, 0xBB	; 187
    1a7e:	ff 4f       	sbci	r31, 0xFF	; 255
    1a80:	60 81       	ld	r22, Z
    1a82:	71 81       	ldd	r23, Z+1	; 0x01
    1a84:	82 81       	ldd	r24, Z+2	; 0x02
    1a86:	93 81       	ldd	r25, Z+3	; 0x03
    1a88:	20 e0       	ldi	r18, 0x00	; 0
    1a8a:	30 e0       	ldi	r19, 0x00	; 0
    1a8c:	40 e8       	ldi	r20, 0x80	; 128
    1a8e:	5f e3       	ldi	r21, 0x3F	; 63
    1a90:	0e 94 25 04 	call	0x84a	; 0x84a <__ltsf2>
    1a94:	88 23       	and	r24, r24
    1a96:	44 f4       	brge	.+16     	; 0x1aa8 <LCD_enuInit+0x1ce>
		__ticks = 1;
    1a98:	fe 01       	movw	r30, r28
    1a9a:	ed 5b       	subi	r30, 0xBD	; 189
    1a9c:	ff 4f       	sbci	r31, 0xFF	; 255
    1a9e:	81 e0       	ldi	r24, 0x01	; 1
    1aa0:	90 e0       	ldi	r25, 0x00	; 0
    1aa2:	91 83       	std	Z+1, r25	; 0x01
    1aa4:	80 83       	st	Z, r24
    1aa6:	64 c0       	rjmp	.+200    	; 0x1b70 <LCD_enuInit+0x296>
	else if (__tmp > 65535)
    1aa8:	fe 01       	movw	r30, r28
    1aaa:	eb 5b       	subi	r30, 0xBB	; 187
    1aac:	ff 4f       	sbci	r31, 0xFF	; 255
    1aae:	60 81       	ld	r22, Z
    1ab0:	71 81       	ldd	r23, Z+1	; 0x01
    1ab2:	82 81       	ldd	r24, Z+2	; 0x02
    1ab4:	93 81       	ldd	r25, Z+3	; 0x03
    1ab6:	20 e0       	ldi	r18, 0x00	; 0
    1ab8:	3f ef       	ldi	r19, 0xFF	; 255
    1aba:	4f e7       	ldi	r20, 0x7F	; 127
    1abc:	57 e4       	ldi	r21, 0x47	; 71
    1abe:	0e 94 c5 03 	call	0x78a	; 0x78a <__gtsf2>
    1ac2:	18 16       	cp	r1, r24
    1ac4:	0c f0       	brlt	.+2      	; 0x1ac8 <LCD_enuInit+0x1ee>
    1ac6:	43 c0       	rjmp	.+134    	; 0x1b4e <LCD_enuInit+0x274>
	{
		//	__ticks = requested delay in 1/10 ms
		__ticks = (uint16_t) (__ms * 10.0);
    1ac8:	fe 01       	movw	r30, r28
    1aca:	e7 5b       	subi	r30, 0xB7	; 183
    1acc:	ff 4f       	sbci	r31, 0xFF	; 255
    1ace:	60 81       	ld	r22, Z
    1ad0:	71 81       	ldd	r23, Z+1	; 0x01
    1ad2:	82 81       	ldd	r24, Z+2	; 0x02
    1ad4:	93 81       	ldd	r25, Z+3	; 0x03
    1ad6:	20 e0       	ldi	r18, 0x00	; 0
    1ad8:	30 e0       	ldi	r19, 0x00	; 0
    1ada:	40 e2       	ldi	r20, 0x20	; 32
    1adc:	51 e4       	ldi	r21, 0x41	; 65
    1ade:	0e 94 1f 02 	call	0x43e	; 0x43e <__mulsf3>
    1ae2:	dc 01       	movw	r26, r24
    1ae4:	cb 01       	movw	r24, r22
    1ae6:	8e 01       	movw	r16, r28
    1ae8:	0d 5b       	subi	r16, 0xBD	; 189
    1aea:	1f 4f       	sbci	r17, 0xFF	; 255
    1aec:	bc 01       	movw	r22, r24
    1aee:	cd 01       	movw	r24, r26
    1af0:	0e 94 49 00 	call	0x92	; 0x92 <__fixunssfsi>
    1af4:	dc 01       	movw	r26, r24
    1af6:	cb 01       	movw	r24, r22
    1af8:	f8 01       	movw	r30, r16
    1afa:	91 83       	std	Z+1, r25	; 0x01
    1afc:	80 83       	st	Z, r24
    1afe:	1f c0       	rjmp	.+62     	; 0x1b3e <LCD_enuInit+0x264>
    1b00:	fe 01       	movw	r30, r28
    1b02:	ef 5b       	subi	r30, 0xBF	; 191
    1b04:	ff 4f       	sbci	r31, 0xFF	; 255
    1b06:	88 ec       	ldi	r24, 0xC8	; 200
    1b08:	90 e0       	ldi	r25, 0x00	; 0
    1b0a:	91 83       	std	Z+1, r25	; 0x01
    1b0c:	80 83       	st	Z, r24
    milliseconds can be achieved.
 */
void
_delay_loop_2(uint16_t __count)
{
	__asm__ volatile (
    1b0e:	fe 01       	movw	r30, r28
    1b10:	ef 5b       	subi	r30, 0xBF	; 191
    1b12:	ff 4f       	sbci	r31, 0xFF	; 255
    1b14:	80 81       	ld	r24, Z
    1b16:	91 81       	ldd	r25, Z+1	; 0x01
    1b18:	01 97       	sbiw	r24, 0x01	; 1
    1b1a:	f1 f7       	brne	.-4      	; 0x1b18 <LCD_enuInit+0x23e>
    1b1c:	fe 01       	movw	r30, r28
    1b1e:	ef 5b       	subi	r30, 0xBF	; 191
    1b20:	ff 4f       	sbci	r31, 0xFF	; 255
    1b22:	91 83       	std	Z+1, r25	; 0x01
    1b24:	80 83       	st	Z, r24
		while(__ticks)
		{
			// wait 1/10 ms
			_delay_loop_2(((F_CPU) / 4e3) / 10);
			__ticks --;
    1b26:	de 01       	movw	r26, r28
    1b28:	ad 5b       	subi	r26, 0xBD	; 189
    1b2a:	bf 4f       	sbci	r27, 0xFF	; 255
    1b2c:	fe 01       	movw	r30, r28
    1b2e:	ed 5b       	subi	r30, 0xBD	; 189
    1b30:	ff 4f       	sbci	r31, 0xFF	; 255
    1b32:	80 81       	ld	r24, Z
    1b34:	91 81       	ldd	r25, Z+1	; 0x01
    1b36:	01 97       	sbiw	r24, 0x01	; 1
    1b38:	11 96       	adiw	r26, 0x01	; 1
    1b3a:	9c 93       	st	X, r25
    1b3c:	8e 93       	st	-X, r24
		__ticks = 1;
	else if (__tmp > 65535)
	{
		//	__ticks = requested delay in 1/10 ms
		__ticks = (uint16_t) (__ms * 10.0);
		while(__ticks)
    1b3e:	fe 01       	movw	r30, r28
    1b40:	ed 5b       	subi	r30, 0xBD	; 189
    1b42:	ff 4f       	sbci	r31, 0xFF	; 255
    1b44:	80 81       	ld	r24, Z
    1b46:	91 81       	ldd	r25, Z+1	; 0x01
    1b48:	00 97       	sbiw	r24, 0x00	; 0
    1b4a:	d1 f6       	brne	.-76     	; 0x1b00 <LCD_enuInit+0x226>
    1b4c:	24 c0       	rjmp	.+72     	; 0x1b96 <LCD_enuInit+0x2bc>
			__ticks --;
		}
		return;
	}
	else
		__ticks = (uint16_t)__tmp;
    1b4e:	8e 01       	movw	r16, r28
    1b50:	0d 5b       	subi	r16, 0xBD	; 189
    1b52:	1f 4f       	sbci	r17, 0xFF	; 255
    1b54:	fe 01       	movw	r30, r28
    1b56:	eb 5b       	subi	r30, 0xBB	; 187
    1b58:	ff 4f       	sbci	r31, 0xFF	; 255
    1b5a:	60 81       	ld	r22, Z
    1b5c:	71 81       	ldd	r23, Z+1	; 0x01
    1b5e:	82 81       	ldd	r24, Z+2	; 0x02
    1b60:	93 81       	ldd	r25, Z+3	; 0x03
    1b62:	0e 94 49 00 	call	0x92	; 0x92 <__fixunssfsi>
    1b66:	dc 01       	movw	r26, r24
    1b68:	cb 01       	movw	r24, r22
    1b6a:	f8 01       	movw	r30, r16
    1b6c:	91 83       	std	Z+1, r25	; 0x01
    1b6e:	80 83       	st	Z, r24
    1b70:	fe 01       	movw	r30, r28
    1b72:	ed 5b       	subi	r30, 0xBD	; 189
    1b74:	ff 4f       	sbci	r31, 0xFF	; 255
    1b76:	80 81       	ld	r24, Z
    1b78:	91 81       	ldd	r25, Z+1	; 0x01
    1b7a:	fe 01       	movw	r30, r28
    1b7c:	ff 96       	adiw	r30, 0x3f	; 63
    1b7e:	91 83       	std	Z+1, r25	; 0x01
    1b80:	80 83       	st	Z, r24
    1b82:	fe 01       	movw	r30, r28
    1b84:	ff 96       	adiw	r30, 0x3f	; 63
    1b86:	80 81       	ld	r24, Z
    1b88:	91 81       	ldd	r25, Z+1	; 0x01
    1b8a:	01 97       	sbiw	r24, 0x01	; 1
    1b8c:	f1 f7       	brne	.-4      	; 0x1b8a <LCD_enuInit+0x2b0>
    1b8e:	fe 01       	movw	r30, r28
    1b90:	ff 96       	adiw	r30, 0x3f	; 63
    1b92:	91 83       	std	Z+1, r25	; 0x01
    1b94:	80 83       	st	Z, r24
	_delay_ms(30);
	(void)LCD_enuSendCmd(CMD_FUN_SET,u8LCDNmCpy);	// To Apply MISRA
    1b96:	fe 01       	movw	r30, r28
    1b98:	e1 5b       	subi	r30, 0xB1	; 177
    1b9a:	ff 4f       	sbci	r31, 0xFF	; 255
    1b9c:	88 e3       	ldi	r24, 0x38	; 56
    1b9e:	60 81       	ld	r22, Z
    1ba0:	0e 94 e5 0f 	call	0x1fca	; 0x1fca <LCD_enuSendCmd>
    1ba4:	80 e0       	ldi	r24, 0x00	; 0
    1ba6:	90 e0       	ldi	r25, 0x00	; 0
    1ba8:	a0 e2       	ldi	r26, 0x20	; 32
    1baa:	b2 e4       	ldi	r27, 0x42	; 66
    1bac:	8b af       	std	Y+59, r24	; 0x3b
    1bae:	9c af       	std	Y+60, r25	; 0x3c
    1bb0:	ad af       	std	Y+61, r26	; 0x3d
    1bb2:	be af       	std	Y+62, r27	; 0x3e
 */
void
_delay_us(double __us)
{
	uint8_t __ticks;
	double __tmp = ((F_CPU) / 3e6) * __us;
    1bb4:	6b ad       	ldd	r22, Y+59	; 0x3b
    1bb6:	7c ad       	ldd	r23, Y+60	; 0x3c
    1bb8:	8d ad       	ldd	r24, Y+61	; 0x3d
    1bba:	9e ad       	ldd	r25, Y+62	; 0x3e
    1bbc:	2b ea       	ldi	r18, 0xAB	; 171
    1bbe:	3a ea       	ldi	r19, 0xAA	; 170
    1bc0:	4a e2       	ldi	r20, 0x2A	; 42
    1bc2:	50 e4       	ldi	r21, 0x40	; 64
    1bc4:	0e 94 1f 02 	call	0x43e	; 0x43e <__mulsf3>
    1bc8:	dc 01       	movw	r26, r24
    1bca:	cb 01       	movw	r24, r22
    1bcc:	8f ab       	std	Y+55, r24	; 0x37
    1bce:	98 af       	std	Y+56, r25	; 0x38
    1bd0:	a9 af       	std	Y+57, r26	; 0x39
    1bd2:	ba af       	std	Y+58, r27	; 0x3a
	if (__tmp < 1.0)
    1bd4:	6f a9       	ldd	r22, Y+55	; 0x37
    1bd6:	78 ad       	ldd	r23, Y+56	; 0x38
    1bd8:	89 ad       	ldd	r24, Y+57	; 0x39
    1bda:	9a ad       	ldd	r25, Y+58	; 0x3a
    1bdc:	20 e0       	ldi	r18, 0x00	; 0
    1bde:	30 e0       	ldi	r19, 0x00	; 0
    1be0:	40 e8       	ldi	r20, 0x80	; 128
    1be2:	5f e3       	ldi	r21, 0x3F	; 63
    1be4:	0e 94 25 04 	call	0x84a	; 0x84a <__ltsf2>
    1be8:	88 23       	and	r24, r24
    1bea:	1c f4       	brge	.+6      	; 0x1bf2 <LCD_enuInit+0x318>
		__ticks = 1;
    1bec:	81 e0       	ldi	r24, 0x01	; 1
    1bee:	8e ab       	std	Y+54, r24	; 0x36
    1bf0:	91 c0       	rjmp	.+290    	; 0x1d14 <LCD_enuInit+0x43a>
	else if (__tmp > 255)
    1bf2:	6f a9       	ldd	r22, Y+55	; 0x37
    1bf4:	78 ad       	ldd	r23, Y+56	; 0x38
    1bf6:	89 ad       	ldd	r24, Y+57	; 0x39
    1bf8:	9a ad       	ldd	r25, Y+58	; 0x3a
    1bfa:	20 e0       	ldi	r18, 0x00	; 0
    1bfc:	30 e0       	ldi	r19, 0x00	; 0
    1bfe:	4f e7       	ldi	r20, 0x7F	; 127
    1c00:	53 e4       	ldi	r21, 0x43	; 67
    1c02:	0e 94 c5 03 	call	0x78a	; 0x78a <__gtsf2>
    1c06:	18 16       	cp	r1, r24
    1c08:	0c f0       	brlt	.+2      	; 0x1c0c <LCD_enuInit+0x332>
    1c0a:	7b c0       	rjmp	.+246    	; 0x1d02 <LCD_enuInit+0x428>
	{
		_delay_ms(__us / 1000.0);
    1c0c:	6b ad       	ldd	r22, Y+59	; 0x3b
    1c0e:	7c ad       	ldd	r23, Y+60	; 0x3c
    1c10:	8d ad       	ldd	r24, Y+61	; 0x3d
    1c12:	9e ad       	ldd	r25, Y+62	; 0x3e
    1c14:	20 e0       	ldi	r18, 0x00	; 0
    1c16:	30 e0       	ldi	r19, 0x00	; 0
    1c18:	4a e7       	ldi	r20, 0x7A	; 122
    1c1a:	54 e4       	ldi	r21, 0x44	; 68
    1c1c:	0e 94 19 03 	call	0x632	; 0x632 <__divsf3>
    1c20:	dc 01       	movw	r26, r24
    1c22:	cb 01       	movw	r24, r22
    1c24:	8a ab       	std	Y+50, r24	; 0x32
    1c26:	9b ab       	std	Y+51, r25	; 0x33
    1c28:	ac ab       	std	Y+52, r26	; 0x34
    1c2a:	bd ab       	std	Y+53, r27	; 0x35
 */
void
_delay_ms(double __ms)
{
	uint16_t __ticks;
	double __tmp = ((F_CPU) / 4e3) * __ms;
    1c2c:	6a a9       	ldd	r22, Y+50	; 0x32
    1c2e:	7b a9       	ldd	r23, Y+51	; 0x33
    1c30:	8c a9       	ldd	r24, Y+52	; 0x34
    1c32:	9d a9       	ldd	r25, Y+53	; 0x35
    1c34:	20 e0       	ldi	r18, 0x00	; 0
    1c36:	30 e0       	ldi	r19, 0x00	; 0
    1c38:	4a ef       	ldi	r20, 0xFA	; 250
    1c3a:	54 e4       	ldi	r21, 0x44	; 68
    1c3c:	0e 94 1f 02 	call	0x43e	; 0x43e <__mulsf3>
    1c40:	dc 01       	movw	r26, r24
    1c42:	cb 01       	movw	r24, r22
    1c44:	8e a7       	std	Y+46, r24	; 0x2e
    1c46:	9f a7       	std	Y+47, r25	; 0x2f
    1c48:	a8 ab       	std	Y+48, r26	; 0x30
    1c4a:	b9 ab       	std	Y+49, r27	; 0x31
	if (__tmp < 1.0)
    1c4c:	6e a5       	ldd	r22, Y+46	; 0x2e
    1c4e:	7f a5       	ldd	r23, Y+47	; 0x2f
    1c50:	88 a9       	ldd	r24, Y+48	; 0x30
    1c52:	99 a9       	ldd	r25, Y+49	; 0x31
    1c54:	20 e0       	ldi	r18, 0x00	; 0
    1c56:	30 e0       	ldi	r19, 0x00	; 0
    1c58:	40 e8       	ldi	r20, 0x80	; 128
    1c5a:	5f e3       	ldi	r21, 0x3F	; 63
    1c5c:	0e 94 25 04 	call	0x84a	; 0x84a <__ltsf2>
    1c60:	88 23       	and	r24, r24
    1c62:	2c f4       	brge	.+10     	; 0x1c6e <LCD_enuInit+0x394>
		__ticks = 1;
    1c64:	81 e0       	ldi	r24, 0x01	; 1
    1c66:	90 e0       	ldi	r25, 0x00	; 0
    1c68:	9d a7       	std	Y+45, r25	; 0x2d
    1c6a:	8c a7       	std	Y+44, r24	; 0x2c
    1c6c:	3f c0       	rjmp	.+126    	; 0x1cec <LCD_enuInit+0x412>
	else if (__tmp > 65535)
    1c6e:	6e a5       	ldd	r22, Y+46	; 0x2e
    1c70:	7f a5       	ldd	r23, Y+47	; 0x2f
    1c72:	88 a9       	ldd	r24, Y+48	; 0x30
    1c74:	99 a9       	ldd	r25, Y+49	; 0x31
    1c76:	20 e0       	ldi	r18, 0x00	; 0
    1c78:	3f ef       	ldi	r19, 0xFF	; 255
    1c7a:	4f e7       	ldi	r20, 0x7F	; 127
    1c7c:	57 e4       	ldi	r21, 0x47	; 71
    1c7e:	0e 94 c5 03 	call	0x78a	; 0x78a <__gtsf2>
    1c82:	18 16       	cp	r1, r24
    1c84:	4c f5       	brge	.+82     	; 0x1cd8 <LCD_enuInit+0x3fe>
	{
		//	__ticks = requested delay in 1/10 ms
		__ticks = (uint16_t) (__ms * 10.0);
    1c86:	6a a9       	ldd	r22, Y+50	; 0x32
    1c88:	7b a9       	ldd	r23, Y+51	; 0x33
    1c8a:	8c a9       	ldd	r24, Y+52	; 0x34
    1c8c:	9d a9       	ldd	r25, Y+53	; 0x35
    1c8e:	20 e0       	ldi	r18, 0x00	; 0
    1c90:	30 e0       	ldi	r19, 0x00	; 0
    1c92:	40 e2       	ldi	r20, 0x20	; 32
    1c94:	51 e4       	ldi	r21, 0x41	; 65
    1c96:	0e 94 1f 02 	call	0x43e	; 0x43e <__mulsf3>
    1c9a:	dc 01       	movw	r26, r24
    1c9c:	cb 01       	movw	r24, r22
    1c9e:	bc 01       	movw	r22, r24
    1ca0:	cd 01       	movw	r24, r26
    1ca2:	0e 94 49 00 	call	0x92	; 0x92 <__fixunssfsi>
    1ca6:	dc 01       	movw	r26, r24
    1ca8:	cb 01       	movw	r24, r22
    1caa:	9d a7       	std	Y+45, r25	; 0x2d
    1cac:	8c a7       	std	Y+44, r24	; 0x2c
    1cae:	0f c0       	rjmp	.+30     	; 0x1cce <LCD_enuInit+0x3f4>
    1cb0:	88 ec       	ldi	r24, 0xC8	; 200
    1cb2:	90 e0       	ldi	r25, 0x00	; 0
    1cb4:	9b a7       	std	Y+43, r25	; 0x2b
    1cb6:	8a a7       	std	Y+42, r24	; 0x2a
    1cb8:	8a a5       	ldd	r24, Y+42	; 0x2a
    1cba:	9b a5       	ldd	r25, Y+43	; 0x2b
    1cbc:	01 97       	sbiw	r24, 0x01	; 1
    1cbe:	f1 f7       	brne	.-4      	; 0x1cbc <LCD_enuInit+0x3e2>
    1cc0:	9b a7       	std	Y+43, r25	; 0x2b
    1cc2:	8a a7       	std	Y+42, r24	; 0x2a
		while(__ticks)
		{
			// wait 1/10 ms
			_delay_loop_2(((F_CPU) / 4e3) / 10);
			__ticks --;
    1cc4:	8c a5       	ldd	r24, Y+44	; 0x2c
    1cc6:	9d a5       	ldd	r25, Y+45	; 0x2d
    1cc8:	01 97       	sbiw	r24, 0x01	; 1
    1cca:	9d a7       	std	Y+45, r25	; 0x2d
    1ccc:	8c a7       	std	Y+44, r24	; 0x2c
		__ticks = 1;
	else if (__tmp > 65535)
	{
		//	__ticks = requested delay in 1/10 ms
		__ticks = (uint16_t) (__ms * 10.0);
		while(__ticks)
    1cce:	8c a5       	ldd	r24, Y+44	; 0x2c
    1cd0:	9d a5       	ldd	r25, Y+45	; 0x2d
    1cd2:	00 97       	sbiw	r24, 0x00	; 0
    1cd4:	69 f7       	brne	.-38     	; 0x1cb0 <LCD_enuInit+0x3d6>
    1cd6:	24 c0       	rjmp	.+72     	; 0x1d20 <LCD_enuInit+0x446>
			__ticks --;
		}
		return;
	}
	else
		__ticks = (uint16_t)__tmp;
    1cd8:	6e a5       	ldd	r22, Y+46	; 0x2e
    1cda:	7f a5       	ldd	r23, Y+47	; 0x2f
    1cdc:	88 a9       	ldd	r24, Y+48	; 0x30
    1cde:	99 a9       	ldd	r25, Y+49	; 0x31
    1ce0:	0e 94 49 00 	call	0x92	; 0x92 <__fixunssfsi>
    1ce4:	dc 01       	movw	r26, r24
    1ce6:	cb 01       	movw	r24, r22
    1ce8:	9d a7       	std	Y+45, r25	; 0x2d
    1cea:	8c a7       	std	Y+44, r24	; 0x2c
    1cec:	8c a5       	ldd	r24, Y+44	; 0x2c
    1cee:	9d a5       	ldd	r25, Y+45	; 0x2d
    1cf0:	99 a7       	std	Y+41, r25	; 0x29
    1cf2:	88 a7       	std	Y+40, r24	; 0x28
    1cf4:	88 a5       	ldd	r24, Y+40	; 0x28
    1cf6:	99 a5       	ldd	r25, Y+41	; 0x29
    1cf8:	01 97       	sbiw	r24, 0x01	; 1
    1cfa:	f1 f7       	brne	.-4      	; 0x1cf8 <LCD_enuInit+0x41e>
    1cfc:	99 a7       	std	Y+41, r25	; 0x29
    1cfe:	88 a7       	std	Y+40, r24	; 0x28
    1d00:	0f c0       	rjmp	.+30     	; 0x1d20 <LCD_enuInit+0x446>
	{
		_delay_ms(__us / 1000.0);
		return;
	}
	else
		__ticks = (uint8_t)__tmp;
    1d02:	6f a9       	ldd	r22, Y+55	; 0x37
    1d04:	78 ad       	ldd	r23, Y+56	; 0x38
    1d06:	89 ad       	ldd	r24, Y+57	; 0x39
    1d08:	9a ad       	ldd	r25, Y+58	; 0x3a
    1d0a:	0e 94 49 00 	call	0x92	; 0x92 <__fixunssfsi>
    1d0e:	dc 01       	movw	r26, r24
    1d10:	cb 01       	movw	r24, r22
    1d12:	8e ab       	std	Y+54, r24	; 0x36
    1d14:	8e a9       	ldd	r24, Y+54	; 0x36
    1d16:	8f a3       	std	Y+39, r24	; 0x27
    can be achieved.
*/
void
_delay_loop_1(uint8_t __count)
{
	__asm__ volatile (
    1d18:	8f a1       	ldd	r24, Y+39	; 0x27
    1d1a:	8a 95       	dec	r24
    1d1c:	f1 f7       	brne	.-4      	; 0x1d1a <LCD_enuInit+0x440>
    1d1e:	8f a3       	std	Y+39, r24	; 0x27
	_delay_us(40);
	LCD_enuSendCmd(CMD_DISPLAY_ON_CURSOR_ON_BLINK,u8LCDNmCpy);
    1d20:	fe 01       	movw	r30, r28
    1d22:	e1 5b       	subi	r30, 0xB1	; 177
    1d24:	ff 4f       	sbci	r31, 0xFF	; 255
    1d26:	8f e0       	ldi	r24, 0x0F	; 15
    1d28:	60 81       	ld	r22, Z
    1d2a:	0e 94 e5 0f 	call	0x1fca	; 0x1fca <LCD_enuSendCmd>
    1d2e:	80 e0       	ldi	r24, 0x00	; 0
    1d30:	90 e0       	ldi	r25, 0x00	; 0
    1d32:	a0 e2       	ldi	r26, 0x20	; 32
    1d34:	b2 e4       	ldi	r27, 0x42	; 66
    1d36:	8b a3       	std	Y+35, r24	; 0x23
    1d38:	9c a3       	std	Y+36, r25	; 0x24
    1d3a:	ad a3       	std	Y+37, r26	; 0x25
    1d3c:	be a3       	std	Y+38, r27	; 0x26
 */
void
_delay_us(double __us)
{
	uint8_t __ticks;
	double __tmp = ((F_CPU) / 3e6) * __us;
    1d3e:	6b a1       	ldd	r22, Y+35	; 0x23
    1d40:	7c a1       	ldd	r23, Y+36	; 0x24
    1d42:	8d a1       	ldd	r24, Y+37	; 0x25
    1d44:	9e a1       	ldd	r25, Y+38	; 0x26
    1d46:	2b ea       	ldi	r18, 0xAB	; 171
    1d48:	3a ea       	ldi	r19, 0xAA	; 170
    1d4a:	4a e2       	ldi	r20, 0x2A	; 42
    1d4c:	50 e4       	ldi	r21, 0x40	; 64
    1d4e:	0e 94 1f 02 	call	0x43e	; 0x43e <__mulsf3>
    1d52:	dc 01       	movw	r26, r24
    1d54:	cb 01       	movw	r24, r22
    1d56:	8f 8f       	std	Y+31, r24	; 0x1f
    1d58:	98 a3       	std	Y+32, r25	; 0x20
    1d5a:	a9 a3       	std	Y+33, r26	; 0x21
    1d5c:	ba a3       	std	Y+34, r27	; 0x22
	if (__tmp < 1.0)
    1d5e:	6f 8d       	ldd	r22, Y+31	; 0x1f
    1d60:	78 a1       	ldd	r23, Y+32	; 0x20
    1d62:	89 a1       	ldd	r24, Y+33	; 0x21
    1d64:	9a a1       	ldd	r25, Y+34	; 0x22
    1d66:	20 e0       	ldi	r18, 0x00	; 0
    1d68:	30 e0       	ldi	r19, 0x00	; 0
    1d6a:	40 e8       	ldi	r20, 0x80	; 128
    1d6c:	5f e3       	ldi	r21, 0x3F	; 63
    1d6e:	0e 94 25 04 	call	0x84a	; 0x84a <__ltsf2>
    1d72:	88 23       	and	r24, r24
    1d74:	1c f4       	brge	.+6      	; 0x1d7c <LCD_enuInit+0x4a2>
		__ticks = 1;
    1d76:	81 e0       	ldi	r24, 0x01	; 1
    1d78:	8e 8f       	std	Y+30, r24	; 0x1e
    1d7a:	91 c0       	rjmp	.+290    	; 0x1e9e <LCD_enuInit+0x5c4>
	else if (__tmp > 255)
    1d7c:	6f 8d       	ldd	r22, Y+31	; 0x1f
    1d7e:	78 a1       	ldd	r23, Y+32	; 0x20
    1d80:	89 a1       	ldd	r24, Y+33	; 0x21
    1d82:	9a a1       	ldd	r25, Y+34	; 0x22
    1d84:	20 e0       	ldi	r18, 0x00	; 0
    1d86:	30 e0       	ldi	r19, 0x00	; 0
    1d88:	4f e7       	ldi	r20, 0x7F	; 127
    1d8a:	53 e4       	ldi	r21, 0x43	; 67
    1d8c:	0e 94 c5 03 	call	0x78a	; 0x78a <__gtsf2>
    1d90:	18 16       	cp	r1, r24
    1d92:	0c f0       	brlt	.+2      	; 0x1d96 <LCD_enuInit+0x4bc>
    1d94:	7b c0       	rjmp	.+246    	; 0x1e8c <LCD_enuInit+0x5b2>
	{
		_delay_ms(__us / 1000.0);
    1d96:	6b a1       	ldd	r22, Y+35	; 0x23
    1d98:	7c a1       	ldd	r23, Y+36	; 0x24
    1d9a:	8d a1       	ldd	r24, Y+37	; 0x25
    1d9c:	9e a1       	ldd	r25, Y+38	; 0x26
    1d9e:	20 e0       	ldi	r18, 0x00	; 0
    1da0:	30 e0       	ldi	r19, 0x00	; 0
    1da2:	4a e7       	ldi	r20, 0x7A	; 122
    1da4:	54 e4       	ldi	r21, 0x44	; 68
    1da6:	0e 94 19 03 	call	0x632	; 0x632 <__divsf3>
    1daa:	dc 01       	movw	r26, r24
    1dac:	cb 01       	movw	r24, r22
    1dae:	8a 8f       	std	Y+26, r24	; 0x1a
    1db0:	9b 8f       	std	Y+27, r25	; 0x1b
    1db2:	ac 8f       	std	Y+28, r26	; 0x1c
    1db4:	bd 8f       	std	Y+29, r27	; 0x1d
 */
void
_delay_ms(double __ms)
{
	uint16_t __ticks;
	double __tmp = ((F_CPU) / 4e3) * __ms;
    1db6:	6a 8d       	ldd	r22, Y+26	; 0x1a
    1db8:	7b 8d       	ldd	r23, Y+27	; 0x1b
    1dba:	8c 8d       	ldd	r24, Y+28	; 0x1c
    1dbc:	9d 8d       	ldd	r25, Y+29	; 0x1d
    1dbe:	20 e0       	ldi	r18, 0x00	; 0
    1dc0:	30 e0       	ldi	r19, 0x00	; 0
    1dc2:	4a ef       	ldi	r20, 0xFA	; 250
    1dc4:	54 e4       	ldi	r21, 0x44	; 68
    1dc6:	0e 94 1f 02 	call	0x43e	; 0x43e <__mulsf3>
    1dca:	dc 01       	movw	r26, r24
    1dcc:	cb 01       	movw	r24, r22
    1dce:	8e 8b       	std	Y+22, r24	; 0x16
    1dd0:	9f 8b       	std	Y+23, r25	; 0x17
    1dd2:	a8 8f       	std	Y+24, r26	; 0x18
    1dd4:	b9 8f       	std	Y+25, r27	; 0x19
	if (__tmp < 1.0)
    1dd6:	6e 89       	ldd	r22, Y+22	; 0x16
    1dd8:	7f 89       	ldd	r23, Y+23	; 0x17
    1dda:	88 8d       	ldd	r24, Y+24	; 0x18
    1ddc:	99 8d       	ldd	r25, Y+25	; 0x19
    1dde:	20 e0       	ldi	r18, 0x00	; 0
    1de0:	30 e0       	ldi	r19, 0x00	; 0
    1de2:	40 e8       	ldi	r20, 0x80	; 128
    1de4:	5f e3       	ldi	r21, 0x3F	; 63
    1de6:	0e 94 25 04 	call	0x84a	; 0x84a <__ltsf2>
    1dea:	88 23       	and	r24, r24
    1dec:	2c f4       	brge	.+10     	; 0x1df8 <LCD_enuInit+0x51e>
		__ticks = 1;
    1dee:	81 e0       	ldi	r24, 0x01	; 1
    1df0:	90 e0       	ldi	r25, 0x00	; 0
    1df2:	9d 8b       	std	Y+21, r25	; 0x15
    1df4:	8c 8b       	std	Y+20, r24	; 0x14
    1df6:	3f c0       	rjmp	.+126    	; 0x1e76 <LCD_enuInit+0x59c>
	else if (__tmp > 65535)
    1df8:	6e 89       	ldd	r22, Y+22	; 0x16
    1dfa:	7f 89       	ldd	r23, Y+23	; 0x17
    1dfc:	88 8d       	ldd	r24, Y+24	; 0x18
    1dfe:	99 8d       	ldd	r25, Y+25	; 0x19
    1e00:	20 e0       	ldi	r18, 0x00	; 0
    1e02:	3f ef       	ldi	r19, 0xFF	; 255
    1e04:	4f e7       	ldi	r20, 0x7F	; 127
    1e06:	57 e4       	ldi	r21, 0x47	; 71
    1e08:	0e 94 c5 03 	call	0x78a	; 0x78a <__gtsf2>
    1e0c:	18 16       	cp	r1, r24
    1e0e:	4c f5       	brge	.+82     	; 0x1e62 <LCD_enuInit+0x588>
	{
		//	__ticks = requested delay in 1/10 ms
		__ticks = (uint16_t) (__ms * 10.0);
    1e10:	6a 8d       	ldd	r22, Y+26	; 0x1a
    1e12:	7b 8d       	ldd	r23, Y+27	; 0x1b
    1e14:	8c 8d       	ldd	r24, Y+28	; 0x1c
    1e16:	9d 8d       	ldd	r25, Y+29	; 0x1d
    1e18:	20 e0       	ldi	r18, 0x00	; 0
    1e1a:	30 e0       	ldi	r19, 0x00	; 0
    1e1c:	40 e2       	ldi	r20, 0x20	; 32
    1e1e:	51 e4       	ldi	r21, 0x41	; 65
    1e20:	0e 94 1f 02 	call	0x43e	; 0x43e <__mulsf3>
    1e24:	dc 01       	movw	r26, r24
    1e26:	cb 01       	movw	r24, r22
    1e28:	bc 01       	movw	r22, r24
    1e2a:	cd 01       	movw	r24, r26
    1e2c:	0e 94 49 00 	call	0x92	; 0x92 <__fixunssfsi>
    1e30:	dc 01       	movw	r26, r24
    1e32:	cb 01       	movw	r24, r22
    1e34:	9d 8b       	std	Y+21, r25	; 0x15
    1e36:	8c 8b       	std	Y+20, r24	; 0x14
    1e38:	0f c0       	rjmp	.+30     	; 0x1e58 <LCD_enuInit+0x57e>
    1e3a:	88 ec       	ldi	r24, 0xC8	; 200
    1e3c:	90 e0       	ldi	r25, 0x00	; 0
    1e3e:	9b 8b       	std	Y+19, r25	; 0x13
    1e40:	8a 8b       	std	Y+18, r24	; 0x12
    milliseconds can be achieved.
 */
void
_delay_loop_2(uint16_t __count)
{
	__asm__ volatile (
    1e42:	8a 89       	ldd	r24, Y+18	; 0x12
    1e44:	9b 89       	ldd	r25, Y+19	; 0x13
    1e46:	01 97       	sbiw	r24, 0x01	; 1
    1e48:	f1 f7       	brne	.-4      	; 0x1e46 <LCD_enuInit+0x56c>
    1e4a:	9b 8b       	std	Y+19, r25	; 0x13
    1e4c:	8a 8b       	std	Y+18, r24	; 0x12
		while(__ticks)
		{
			// wait 1/10 ms
			_delay_loop_2(((F_CPU) / 4e3) / 10);
			__ticks --;
    1e4e:	8c 89       	ldd	r24, Y+20	; 0x14
    1e50:	9d 89       	ldd	r25, Y+21	; 0x15
    1e52:	01 97       	sbiw	r24, 0x01	; 1
    1e54:	9d 8b       	std	Y+21, r25	; 0x15
    1e56:	8c 8b       	std	Y+20, r24	; 0x14
		__ticks = 1;
	else if (__tmp > 65535)
	{
		//	__ticks = requested delay in 1/10 ms
		__ticks = (uint16_t) (__ms * 10.0);
		while(__ticks)
    1e58:	8c 89       	ldd	r24, Y+20	; 0x14
    1e5a:	9d 89       	ldd	r25, Y+21	; 0x15
    1e5c:	00 97       	sbiw	r24, 0x00	; 0
    1e5e:	69 f7       	brne	.-38     	; 0x1e3a <LCD_enuInit+0x560>
    1e60:	24 c0       	rjmp	.+72     	; 0x1eaa <LCD_enuInit+0x5d0>
			__ticks --;
		}
		return;
	}
	else
		__ticks = (uint16_t)__tmp;
    1e62:	6e 89       	ldd	r22, Y+22	; 0x16
    1e64:	7f 89       	ldd	r23, Y+23	; 0x17
    1e66:	88 8d       	ldd	r24, Y+24	; 0x18
    1e68:	99 8d       	ldd	r25, Y+25	; 0x19
    1e6a:	0e 94 49 00 	call	0x92	; 0x92 <__fixunssfsi>
    1e6e:	dc 01       	movw	r26, r24
    1e70:	cb 01       	movw	r24, r22
    1e72:	9d 8b       	std	Y+21, r25	; 0x15
    1e74:	8c 8b       	std	Y+20, r24	; 0x14
    1e76:	8c 89       	ldd	r24, Y+20	; 0x14
    1e78:	9d 89       	ldd	r25, Y+21	; 0x15
    1e7a:	99 8b       	std	Y+17, r25	; 0x11
    1e7c:	88 8b       	std	Y+16, r24	; 0x10
    1e7e:	88 89       	ldd	r24, Y+16	; 0x10
    1e80:	99 89       	ldd	r25, Y+17	; 0x11
    1e82:	01 97       	sbiw	r24, 0x01	; 1
    1e84:	f1 f7       	brne	.-4      	; 0x1e82 <LCD_enuInit+0x5a8>
    1e86:	99 8b       	std	Y+17, r25	; 0x11
    1e88:	88 8b       	std	Y+16, r24	; 0x10
    1e8a:	0f c0       	rjmp	.+30     	; 0x1eaa <LCD_enuInit+0x5d0>
	{
		_delay_ms(__us / 1000.0);
		return;
	}
	else
		__ticks = (uint8_t)__tmp;
    1e8c:	6f 8d       	ldd	r22, Y+31	; 0x1f
    1e8e:	78 a1       	ldd	r23, Y+32	; 0x20
    1e90:	89 a1       	ldd	r24, Y+33	; 0x21
    1e92:	9a a1       	ldd	r25, Y+34	; 0x22
    1e94:	0e 94 49 00 	call	0x92	; 0x92 <__fixunssfsi>
    1e98:	dc 01       	movw	r26, r24
    1e9a:	cb 01       	movw	r24, r22
    1e9c:	8e 8f       	std	Y+30, r24	; 0x1e
    1e9e:	8e 8d       	ldd	r24, Y+30	; 0x1e
    1ea0:	8f 87       	std	Y+15, r24	; 0x0f
    can be achieved.
*/
void
_delay_loop_1(uint8_t __count)
{
	__asm__ volatile (
    1ea2:	8f 85       	ldd	r24, Y+15	; 0x0f
    1ea4:	8a 95       	dec	r24
    1ea6:	f1 f7       	brne	.-4      	; 0x1ea4 <LCD_enuInit+0x5ca>
    1ea8:	8f 87       	std	Y+15, r24	; 0x0f
	_delay_us(40);
	LCD_enuSendCmd(CMD_DISPLAY_CLEAR,u8LCDNmCpy);
    1eaa:	fe 01       	movw	r30, r28
    1eac:	e1 5b       	subi	r30, 0xB1	; 177
    1eae:	ff 4f       	sbci	r31, 0xFF	; 255
    1eb0:	81 e0       	ldi	r24, 0x01	; 1
    1eb2:	60 81       	ld	r22, Z
    1eb4:	0e 94 e5 0f 	call	0x1fca	; 0x1fca <LCD_enuSendCmd>
    1eb8:	80 e0       	ldi	r24, 0x00	; 0
    1eba:	90 e0       	ldi	r25, 0x00	; 0
    1ebc:	a0 e0       	ldi	r26, 0x00	; 0
    1ebe:	b0 e4       	ldi	r27, 0x40	; 64
    1ec0:	8b 87       	std	Y+11, r24	; 0x0b
    1ec2:	9c 87       	std	Y+12, r25	; 0x0c
    1ec4:	ad 87       	std	Y+13, r26	; 0x0d
    1ec6:	be 87       	std	Y+14, r27	; 0x0e
 */
void
_delay_ms(double __ms)
{
	uint16_t __ticks;
	double __tmp = ((F_CPU) / 4e3) * __ms;
    1ec8:	6b 85       	ldd	r22, Y+11	; 0x0b
    1eca:	7c 85       	ldd	r23, Y+12	; 0x0c
    1ecc:	8d 85       	ldd	r24, Y+13	; 0x0d
    1ece:	9e 85       	ldd	r25, Y+14	; 0x0e
    1ed0:	20 e0       	ldi	r18, 0x00	; 0
    1ed2:	30 e0       	ldi	r19, 0x00	; 0
    1ed4:	4a ef       	ldi	r20, 0xFA	; 250
    1ed6:	54 e4       	ldi	r21, 0x44	; 68
    1ed8:	0e 94 1f 02 	call	0x43e	; 0x43e <__mulsf3>
    1edc:	dc 01       	movw	r26, r24
    1ede:	cb 01       	movw	r24, r22
    1ee0:	8f 83       	std	Y+7, r24	; 0x07
    1ee2:	98 87       	std	Y+8, r25	; 0x08
    1ee4:	a9 87       	std	Y+9, r26	; 0x09
    1ee6:	ba 87       	std	Y+10, r27	; 0x0a
	if (__tmp < 1.0)
    1ee8:	6f 81       	ldd	r22, Y+7	; 0x07
    1eea:	78 85       	ldd	r23, Y+8	; 0x08
    1eec:	89 85       	ldd	r24, Y+9	; 0x09
    1eee:	9a 85       	ldd	r25, Y+10	; 0x0a
    1ef0:	20 e0       	ldi	r18, 0x00	; 0
    1ef2:	30 e0       	ldi	r19, 0x00	; 0
    1ef4:	40 e8       	ldi	r20, 0x80	; 128
    1ef6:	5f e3       	ldi	r21, 0x3F	; 63
    1ef8:	0e 94 25 04 	call	0x84a	; 0x84a <__ltsf2>
    1efc:	88 23       	and	r24, r24
    1efe:	2c f4       	brge	.+10     	; 0x1f0a <LCD_enuInit+0x630>
		__ticks = 1;
    1f00:	81 e0       	ldi	r24, 0x01	; 1
    1f02:	90 e0       	ldi	r25, 0x00	; 0
    1f04:	9e 83       	std	Y+6, r25	; 0x06
    1f06:	8d 83       	std	Y+5, r24	; 0x05
    1f08:	3f c0       	rjmp	.+126    	; 0x1f88 <LCD_enuInit+0x6ae>
	else if (__tmp > 65535)
    1f0a:	6f 81       	ldd	r22, Y+7	; 0x07
    1f0c:	78 85       	ldd	r23, Y+8	; 0x08
    1f0e:	89 85       	ldd	r24, Y+9	; 0x09
    1f10:	9a 85       	ldd	r25, Y+10	; 0x0a
    1f12:	20 e0       	ldi	r18, 0x00	; 0
    1f14:	3f ef       	ldi	r19, 0xFF	; 255
    1f16:	4f e7       	ldi	r20, 0x7F	; 127
    1f18:	57 e4       	ldi	r21, 0x47	; 71
    1f1a:	0e 94 c5 03 	call	0x78a	; 0x78a <__gtsf2>
    1f1e:	18 16       	cp	r1, r24
    1f20:	4c f5       	brge	.+82     	; 0x1f74 <LCD_enuInit+0x69a>
	{
		//	__ticks = requested delay in 1/10 ms
		__ticks = (uint16_t) (__ms * 10.0);
    1f22:	6b 85       	ldd	r22, Y+11	; 0x0b
    1f24:	7c 85       	ldd	r23, Y+12	; 0x0c
    1f26:	8d 85       	ldd	r24, Y+13	; 0x0d
    1f28:	9e 85       	ldd	r25, Y+14	; 0x0e
    1f2a:	20 e0       	ldi	r18, 0x00	; 0
    1f2c:	30 e0       	ldi	r19, 0x00	; 0
    1f2e:	40 e2       	ldi	r20, 0x20	; 32
    1f30:	51 e4       	ldi	r21, 0x41	; 65
    1f32:	0e 94 1f 02 	call	0x43e	; 0x43e <__mulsf3>
    1f36:	dc 01       	movw	r26, r24
    1f38:	cb 01       	movw	r24, r22
    1f3a:	bc 01       	movw	r22, r24
    1f3c:	cd 01       	movw	r24, r26
    1f3e:	0e 94 49 00 	call	0x92	; 0x92 <__fixunssfsi>
    1f42:	dc 01       	movw	r26, r24
    1f44:	cb 01       	movw	r24, r22
    1f46:	9e 83       	std	Y+6, r25	; 0x06
    1f48:	8d 83       	std	Y+5, r24	; 0x05
    1f4a:	0f c0       	rjmp	.+30     	; 0x1f6a <LCD_enuInit+0x690>
    1f4c:	88 ec       	ldi	r24, 0xC8	; 200
    1f4e:	90 e0       	ldi	r25, 0x00	; 0
    1f50:	9c 83       	std	Y+4, r25	; 0x04
    1f52:	8b 83       	std	Y+3, r24	; 0x03
    milliseconds can be achieved.
 */
void
_delay_loop_2(uint16_t __count)
{
	__asm__ volatile (
    1f54:	8b 81       	ldd	r24, Y+3	; 0x03
    1f56:	9c 81       	ldd	r25, Y+4	; 0x04
    1f58:	01 97       	sbiw	r24, 0x01	; 1
    1f5a:	f1 f7       	brne	.-4      	; 0x1f58 <LCD_enuInit+0x67e>
    1f5c:	9c 83       	std	Y+4, r25	; 0x04
    1f5e:	8b 83       	std	Y+3, r24	; 0x03
		while(__ticks)
		{
			// wait 1/10 ms
			_delay_loop_2(((F_CPU) / 4e3) / 10);
			__ticks --;
    1f60:	8d 81       	ldd	r24, Y+5	; 0x05
    1f62:	9e 81       	ldd	r25, Y+6	; 0x06
    1f64:	01 97       	sbiw	r24, 0x01	; 1
    1f66:	9e 83       	std	Y+6, r25	; 0x06
    1f68:	8d 83       	std	Y+5, r24	; 0x05
		__ticks = 1;
	else if (__tmp > 65535)
	{
		//	__ticks = requested delay in 1/10 ms
		__ticks = (uint16_t) (__ms * 10.0);
		while(__ticks)
    1f6a:	8d 81       	ldd	r24, Y+5	; 0x05
    1f6c:	9e 81       	ldd	r25, Y+6	; 0x06
    1f6e:	00 97       	sbiw	r24, 0x00	; 0
    1f70:	69 f7       	brne	.-38     	; 0x1f4c <LCD_enuInit+0x672>
    1f72:	14 c0       	rjmp	.+40     	; 0x1f9c <LCD_enuInit+0x6c2>
			__ticks --;
		}
		return;
	}
	else
		__ticks = (uint16_t)__tmp;
    1f74:	6f 81       	ldd	r22, Y+7	; 0x07
    1f76:	78 85       	ldd	r23, Y+8	; 0x08
    1f78:	89 85       	ldd	r24, Y+9	; 0x09
    1f7a:	9a 85       	ldd	r25, Y+10	; 0x0a
    1f7c:	0e 94 49 00 	call	0x92	; 0x92 <__fixunssfsi>
    1f80:	dc 01       	movw	r26, r24
    1f82:	cb 01       	movw	r24, r22
    1f84:	9e 83       	std	Y+6, r25	; 0x06
    1f86:	8d 83       	std	Y+5, r24	; 0x05
    1f88:	8d 81       	ldd	r24, Y+5	; 0x05
    1f8a:	9e 81       	ldd	r25, Y+6	; 0x06
    1f8c:	9a 83       	std	Y+2, r25	; 0x02
    1f8e:	89 83       	std	Y+1, r24	; 0x01
    1f90:	89 81       	ldd	r24, Y+1	; 0x01
    1f92:	9a 81       	ldd	r25, Y+2	; 0x02
    1f94:	01 97       	sbiw	r24, 0x01	; 1
    1f96:	f1 f7       	brne	.-4      	; 0x1f94 <LCD_enuInit+0x6ba>
    1f98:	9a 83       	std	Y+2, r25	; 0x02
    1f9a:	89 83       	std	Y+1, r24	; 0x01
	_delay_ms(2);
	LCD_enuSendCmd(CMD_ENTRY_MODE_SET,u8LCDNmCpy);
    1f9c:	fe 01       	movw	r30, r28
    1f9e:	e1 5b       	subi	r30, 0xB1	; 177
    1fa0:	ff 4f       	sbci	r31, 0xFF	; 255
    1fa2:	86 e0       	ldi	r24, 0x06	; 6
    1fa4:	60 81       	ld	r22, Z
    1fa6:	0e 94 e5 0f 	call	0x1fca	; 0x1fca <LCD_enuSendCmd>
	return status ;
    1faa:	fe 01       	movw	r30, r28
    1fac:	e2 5b       	subi	r30, 0xB2	; 178
    1fae:	ff 4f       	sbci	r31, 0xFF	; 255
    1fb0:	80 81       	ld	r24, Z
}
    1fb2:	c1 5b       	subi	r28, 0xB1	; 177
    1fb4:	df 4f       	sbci	r29, 0xFF	; 255
    1fb6:	0f b6       	in	r0, 0x3f	; 63
    1fb8:	f8 94       	cli
    1fba:	de bf       	out	0x3e, r29	; 62
    1fbc:	0f be       	out	0x3f, r0	; 63
    1fbe:	cd bf       	out	0x3d, r28	; 61
    1fc0:	cf 91       	pop	r28
    1fc2:	df 91       	pop	r29
    1fc4:	1f 91       	pop	r17
    1fc6:	0f 91       	pop	r16
    1fc8:	08 95       	ret

00001fca <LCD_enuSendCmd>:

Error_Status LCD_enuSendCmd(u8 u8cmdCpy,u8 u8LCDNmCpy)
{
    1fca:	df 93       	push	r29
    1fcc:	cf 93       	push	r28
    1fce:	cd b7       	in	r28, 0x3d	; 61
    1fd0:	de b7       	in	r29, 0x3e	; 62
    1fd2:	61 97       	sbiw	r28, 0x11	; 17
    1fd4:	0f b6       	in	r0, 0x3f	; 63
    1fd6:	f8 94       	cli
    1fd8:	de bf       	out	0x3e, r29	; 62
    1fda:	0f be       	out	0x3f, r0	; 63
    1fdc:	cd bf       	out	0x3d, r28	; 61
    1fde:	88 8b       	std	Y+16, r24	; 0x10
    1fe0:	69 8b       	std	Y+17, r22	; 0x11
	Error_Status status = OK;
    1fe2:	1f 86       	std	Y+15, r1	; 0x0f
	/*choose command register 	   */
	DIO_enuSetPinValue(LCDNb[u8LCDNmCpy].RS,DIO_u8LOW);	/*RS=0*/
    1fe4:	89 89       	ldd	r24, Y+17	; 0x11
    1fe6:	48 2f       	mov	r20, r24
    1fe8:	50 e0       	ldi	r21, 0x00	; 0
    1fea:	ca 01       	movw	r24, r20
    1fec:	88 0f       	add	r24, r24
    1fee:	99 1f       	adc	r25, r25
    1ff0:	9c 01       	movw	r18, r24
    1ff2:	22 0f       	add	r18, r18
    1ff4:	33 1f       	adc	r19, r19
    1ff6:	22 0f       	add	r18, r18
    1ff8:	33 1f       	adc	r19, r19
    1ffa:	82 0f       	add	r24, r18
    1ffc:	93 1f       	adc	r25, r19
    1ffe:	84 0f       	add	r24, r20
    2000:	95 1f       	adc	r25, r21
    2002:	fc 01       	movw	r30, r24
    2004:	e0 58       	subi	r30, 0x80	; 128
    2006:	ff 4f       	sbci	r31, 0xFF	; 255
    2008:	80 81       	ld	r24, Z
    200a:	60 e0       	ldi	r22, 0x00	; 0
    200c:	0e 94 ca 06 	call	0xd94	; 0xd94 <DIO_enuSetPinValue>

	/*Send the Command */

	vidPutData(u8cmdCpy,u8LCDNmCpy);
    2010:	88 89       	ldd	r24, Y+16	; 0x10
    2012:	69 89       	ldd	r22, Y+17	; 0x11
    2014:	0e 94 41 12 	call	0x2482	; 0x2482 <vidPutData>
	
	DIO_enuSetPinValue(LCDNb[u8LCDNmCpy].E,DIO_u8HIGH);	/*set E pin HIGH */
    2018:	89 89       	ldd	r24, Y+17	; 0x11
    201a:	48 2f       	mov	r20, r24
    201c:	50 e0       	ldi	r21, 0x00	; 0
    201e:	ca 01       	movw	r24, r20
    2020:	88 0f       	add	r24, r24
    2022:	99 1f       	adc	r25, r25
    2024:	9c 01       	movw	r18, r24
    2026:	22 0f       	add	r18, r18
    2028:	33 1f       	adc	r19, r19
    202a:	22 0f       	add	r18, r18
    202c:	33 1f       	adc	r19, r19
    202e:	82 0f       	add	r24, r18
    2030:	93 1f       	adc	r25, r19
    2032:	84 0f       	add	r24, r20
    2034:	95 1f       	adc	r25, r21
    2036:	fc 01       	movw	r30, r24
    2038:	ee 57       	subi	r30, 0x7E	; 126
    203a:	ff 4f       	sbci	r31, 0xFF	; 255
    203c:	80 81       	ld	r24, Z
    203e:	61 e0       	ldi	r22, 0x01	; 1
    2040:	0e 94 ca 06 	call	0xd94	; 0xd94 <DIO_enuSetPinValue>
    2044:	80 e0       	ldi	r24, 0x00	; 0
    2046:	90 e0       	ldi	r25, 0x00	; 0
    2048:	a0 e0       	ldi	r26, 0x00	; 0
    204a:	b0 e4       	ldi	r27, 0x40	; 64
    204c:	8b 87       	std	Y+11, r24	; 0x0b
    204e:	9c 87       	std	Y+12, r25	; 0x0c
    2050:	ad 87       	std	Y+13, r26	; 0x0d
    2052:	be 87       	std	Y+14, r27	; 0x0e
 */
void
_delay_ms(double __ms)
{
	uint16_t __ticks;
	double __tmp = ((F_CPU) / 4e3) * __ms;
    2054:	6b 85       	ldd	r22, Y+11	; 0x0b
    2056:	7c 85       	ldd	r23, Y+12	; 0x0c
    2058:	8d 85       	ldd	r24, Y+13	; 0x0d
    205a:	9e 85       	ldd	r25, Y+14	; 0x0e
    205c:	20 e0       	ldi	r18, 0x00	; 0
    205e:	30 e0       	ldi	r19, 0x00	; 0
    2060:	4a ef       	ldi	r20, 0xFA	; 250
    2062:	54 e4       	ldi	r21, 0x44	; 68
    2064:	0e 94 1f 02 	call	0x43e	; 0x43e <__mulsf3>
    2068:	dc 01       	movw	r26, r24
    206a:	cb 01       	movw	r24, r22
    206c:	8f 83       	std	Y+7, r24	; 0x07
    206e:	98 87       	std	Y+8, r25	; 0x08
    2070:	a9 87       	std	Y+9, r26	; 0x09
    2072:	ba 87       	std	Y+10, r27	; 0x0a
	if (__tmp < 1.0)
    2074:	6f 81       	ldd	r22, Y+7	; 0x07
    2076:	78 85       	ldd	r23, Y+8	; 0x08
    2078:	89 85       	ldd	r24, Y+9	; 0x09
    207a:	9a 85       	ldd	r25, Y+10	; 0x0a
    207c:	20 e0       	ldi	r18, 0x00	; 0
    207e:	30 e0       	ldi	r19, 0x00	; 0
    2080:	40 e8       	ldi	r20, 0x80	; 128
    2082:	5f e3       	ldi	r21, 0x3F	; 63
    2084:	0e 94 25 04 	call	0x84a	; 0x84a <__ltsf2>
    2088:	88 23       	and	r24, r24
    208a:	2c f4       	brge	.+10     	; 0x2096 <LCD_enuSendCmd+0xcc>
		__ticks = 1;
    208c:	81 e0       	ldi	r24, 0x01	; 1
    208e:	90 e0       	ldi	r25, 0x00	; 0
    2090:	9e 83       	std	Y+6, r25	; 0x06
    2092:	8d 83       	std	Y+5, r24	; 0x05
    2094:	3f c0       	rjmp	.+126    	; 0x2114 <LCD_enuSendCmd+0x14a>
	else if (__tmp > 65535)
    2096:	6f 81       	ldd	r22, Y+7	; 0x07
    2098:	78 85       	ldd	r23, Y+8	; 0x08
    209a:	89 85       	ldd	r24, Y+9	; 0x09
    209c:	9a 85       	ldd	r25, Y+10	; 0x0a
    209e:	20 e0       	ldi	r18, 0x00	; 0
    20a0:	3f ef       	ldi	r19, 0xFF	; 255
    20a2:	4f e7       	ldi	r20, 0x7F	; 127
    20a4:	57 e4       	ldi	r21, 0x47	; 71
    20a6:	0e 94 c5 03 	call	0x78a	; 0x78a <__gtsf2>
    20aa:	18 16       	cp	r1, r24
    20ac:	4c f5       	brge	.+82     	; 0x2100 <LCD_enuSendCmd+0x136>
	{
		//	__ticks = requested delay in 1/10 ms
		__ticks = (uint16_t) (__ms * 10.0);
    20ae:	6b 85       	ldd	r22, Y+11	; 0x0b
    20b0:	7c 85       	ldd	r23, Y+12	; 0x0c
    20b2:	8d 85       	ldd	r24, Y+13	; 0x0d
    20b4:	9e 85       	ldd	r25, Y+14	; 0x0e
    20b6:	20 e0       	ldi	r18, 0x00	; 0
    20b8:	30 e0       	ldi	r19, 0x00	; 0
    20ba:	40 e2       	ldi	r20, 0x20	; 32
    20bc:	51 e4       	ldi	r21, 0x41	; 65
    20be:	0e 94 1f 02 	call	0x43e	; 0x43e <__mulsf3>
    20c2:	dc 01       	movw	r26, r24
    20c4:	cb 01       	movw	r24, r22
    20c6:	bc 01       	movw	r22, r24
    20c8:	cd 01       	movw	r24, r26
    20ca:	0e 94 49 00 	call	0x92	; 0x92 <__fixunssfsi>
    20ce:	dc 01       	movw	r26, r24
    20d0:	cb 01       	movw	r24, r22
    20d2:	9e 83       	std	Y+6, r25	; 0x06
    20d4:	8d 83       	std	Y+5, r24	; 0x05
    20d6:	0f c0       	rjmp	.+30     	; 0x20f6 <LCD_enuSendCmd+0x12c>
    20d8:	88 ec       	ldi	r24, 0xC8	; 200
    20da:	90 e0       	ldi	r25, 0x00	; 0
    20dc:	9c 83       	std	Y+4, r25	; 0x04
    20de:	8b 83       	std	Y+3, r24	; 0x03
    20e0:	8b 81       	ldd	r24, Y+3	; 0x03
    20e2:	9c 81       	ldd	r25, Y+4	; 0x04
    20e4:	01 97       	sbiw	r24, 0x01	; 1
    20e6:	f1 f7       	brne	.-4      	; 0x20e4 <LCD_enuSendCmd+0x11a>
    20e8:	9c 83       	std	Y+4, r25	; 0x04
    20ea:	8b 83       	std	Y+3, r24	; 0x03
		while(__ticks)
		{
			// wait 1/10 ms
			_delay_loop_2(((F_CPU) / 4e3) / 10);
			__ticks --;
    20ec:	8d 81       	ldd	r24, Y+5	; 0x05
    20ee:	9e 81       	ldd	r25, Y+6	; 0x06
    20f0:	01 97       	sbiw	r24, 0x01	; 1
    20f2:	9e 83       	std	Y+6, r25	; 0x06
    20f4:	8d 83       	std	Y+5, r24	; 0x05
		__ticks = 1;
	else if (__tmp > 65535)
	{
		//	__ticks = requested delay in 1/10 ms
		__ticks = (uint16_t) (__ms * 10.0);
		while(__ticks)
    20f6:	8d 81       	ldd	r24, Y+5	; 0x05
    20f8:	9e 81       	ldd	r25, Y+6	; 0x06
    20fa:	00 97       	sbiw	r24, 0x00	; 0
    20fc:	69 f7       	brne	.-38     	; 0x20d8 <LCD_enuSendCmd+0x10e>
    20fe:	14 c0       	rjmp	.+40     	; 0x2128 <LCD_enuSendCmd+0x15e>
			__ticks --;
		}
		return;
	}
	else
		__ticks = (uint16_t)__tmp;
    2100:	6f 81       	ldd	r22, Y+7	; 0x07
    2102:	78 85       	ldd	r23, Y+8	; 0x08
    2104:	89 85       	ldd	r24, Y+9	; 0x09
    2106:	9a 85       	ldd	r25, Y+10	; 0x0a
    2108:	0e 94 49 00 	call	0x92	; 0x92 <__fixunssfsi>
    210c:	dc 01       	movw	r26, r24
    210e:	cb 01       	movw	r24, r22
    2110:	9e 83       	std	Y+6, r25	; 0x06
    2112:	8d 83       	std	Y+5, r24	; 0x05
    2114:	8d 81       	ldd	r24, Y+5	; 0x05
    2116:	9e 81       	ldd	r25, Y+6	; 0x06
    2118:	9a 83       	std	Y+2, r25	; 0x02
    211a:	89 83       	std	Y+1, r24	; 0x01
    211c:	89 81       	ldd	r24, Y+1	; 0x01
    211e:	9a 81       	ldd	r25, Y+2	; 0x02
    2120:	01 97       	sbiw	r24, 0x01	; 1
    2122:	f1 f7       	brne	.-4      	; 0x2120 <LCD_enuSendCmd+0x156>
    2124:	9a 83       	std	Y+2, r25	; 0x02
    2126:	89 83       	std	Y+1, r24	; 0x01
	_delay_ms(2);
	DIO_enuSetPinValue(LCDNb[u8LCDNmCpy].E,DIO_u8LOW);	/*set E pin LOW */
    2128:	89 89       	ldd	r24, Y+17	; 0x11
    212a:	48 2f       	mov	r20, r24
    212c:	50 e0       	ldi	r21, 0x00	; 0
    212e:	ca 01       	movw	r24, r20
    2130:	88 0f       	add	r24, r24
    2132:	99 1f       	adc	r25, r25
    2134:	9c 01       	movw	r18, r24
    2136:	22 0f       	add	r18, r18
    2138:	33 1f       	adc	r19, r19
    213a:	22 0f       	add	r18, r18
    213c:	33 1f       	adc	r19, r19
    213e:	82 0f       	add	r24, r18
    2140:	93 1f       	adc	r25, r19
    2142:	84 0f       	add	r24, r20
    2144:	95 1f       	adc	r25, r21
    2146:	fc 01       	movw	r30, r24
    2148:	ee 57       	subi	r30, 0x7E	; 126
    214a:	ff 4f       	sbci	r31, 0xFF	; 255
    214c:	80 81       	ld	r24, Z
    214e:	60 e0       	ldi	r22, 0x00	; 0
    2150:	0e 94 ca 06 	call	0xd94	; 0xd94 <DIO_enuSetPinValue>
	return status ;
    2154:	8f 85       	ldd	r24, Y+15	; 0x0f
}
    2156:	61 96       	adiw	r28, 0x11	; 17
    2158:	0f b6       	in	r0, 0x3f	; 63
    215a:	f8 94       	cli
    215c:	de bf       	out	0x3e, r29	; 62
    215e:	0f be       	out	0x3f, r0	; 63
    2160:	cd bf       	out	0x3d, r28	; 61
    2162:	cf 91       	pop	r28
    2164:	df 91       	pop	r29
    2166:	08 95       	ret

00002168 <LCD_enuWriteChar>:

Error_Status LCD_enuWriteChar(u8 u8dataCpy,u8 u8LCDNmCpy)
{
    2168:	df 93       	push	r29
    216a:	cf 93       	push	r28
    216c:	cd b7       	in	r28, 0x3d	; 61
    216e:	de b7       	in	r29, 0x3e	; 62
    2170:	a9 97       	sbiw	r28, 0x29	; 41
    2172:	0f b6       	in	r0, 0x3f	; 63
    2174:	f8 94       	cli
    2176:	de bf       	out	0x3e, r29	; 62
    2178:	0f be       	out	0x3f, r0	; 63
    217a:	cd bf       	out	0x3d, r28	; 61
    217c:	88 a7       	std	Y+40, r24	; 0x28
    217e:	69 a7       	std	Y+41, r22	; 0x29
	Error_Status status = OK;
    2180:	1f a2       	std	Y+39, r1	; 0x27
	/*choose Data register 	   */
	DIO_enuSetPinValue(LCDNb[u8LCDNmCpy].RS,DIO_u8HIGH);	/*RS=1*/
    2182:	89 a5       	ldd	r24, Y+41	; 0x29
    2184:	48 2f       	mov	r20, r24
    2186:	50 e0       	ldi	r21, 0x00	; 0
    2188:	ca 01       	movw	r24, r20
    218a:	88 0f       	add	r24, r24
    218c:	99 1f       	adc	r25, r25
    218e:	9c 01       	movw	r18, r24
    2190:	22 0f       	add	r18, r18
    2192:	33 1f       	adc	r19, r19
    2194:	22 0f       	add	r18, r18
    2196:	33 1f       	adc	r19, r19
    2198:	82 0f       	add	r24, r18
    219a:	93 1f       	adc	r25, r19
    219c:	84 0f       	add	r24, r20
    219e:	95 1f       	adc	r25, r21
    21a0:	fc 01       	movw	r30, r24
    21a2:	e0 58       	subi	r30, 0x80	; 128
    21a4:	ff 4f       	sbci	r31, 0xFF	; 255
    21a6:	80 81       	ld	r24, Z
    21a8:	61 e0       	ldi	r22, 0x01	; 1
    21aa:	0e 94 ca 06 	call	0xd94	; 0xd94 <DIO_enuSetPinValue>


	
	vidPutData(u8dataCpy,u8LCDNmCpy);
    21ae:	88 a5       	ldd	r24, Y+40	; 0x28
    21b0:	69 a5       	ldd	r22, Y+41	; 0x29
    21b2:	0e 94 41 12 	call	0x2482	; 0x2482 <vidPutData>
	
	DIO_enuSetPinValue(LCDNb[u8LCDNmCpy].E,DIO_u8HIGH);	/*set E pin HIGH*/
    21b6:	89 a5       	ldd	r24, Y+41	; 0x29
    21b8:	48 2f       	mov	r20, r24
    21ba:	50 e0       	ldi	r21, 0x00	; 0
    21bc:	ca 01       	movw	r24, r20
    21be:	88 0f       	add	r24, r24
    21c0:	99 1f       	adc	r25, r25
    21c2:	9c 01       	movw	r18, r24
    21c4:	22 0f       	add	r18, r18
    21c6:	33 1f       	adc	r19, r19
    21c8:	22 0f       	add	r18, r18
    21ca:	33 1f       	adc	r19, r19
    21cc:	82 0f       	add	r24, r18
    21ce:	93 1f       	adc	r25, r19
    21d0:	84 0f       	add	r24, r20
    21d2:	95 1f       	adc	r25, r21
    21d4:	fc 01       	movw	r30, r24
    21d6:	ee 57       	subi	r30, 0x7E	; 126
    21d8:	ff 4f       	sbci	r31, 0xFF	; 255
    21da:	80 81       	ld	r24, Z
    21dc:	61 e0       	ldi	r22, 0x01	; 1
    21de:	0e 94 ca 06 	call	0xd94	; 0xd94 <DIO_enuSetPinValue>
    21e2:	80 e0       	ldi	r24, 0x00	; 0
    21e4:	90 e0       	ldi	r25, 0x00	; 0
    21e6:	a0 e8       	ldi	r26, 0x80	; 128
    21e8:	bf e3       	ldi	r27, 0x3F	; 63
    21ea:	8b a3       	std	Y+35, r24	; 0x23
    21ec:	9c a3       	std	Y+36, r25	; 0x24
    21ee:	ad a3       	std	Y+37, r26	; 0x25
    21f0:	be a3       	std	Y+38, r27	; 0x26
 */
void
_delay_ms(double __ms)
{
	uint16_t __ticks;
	double __tmp = ((F_CPU) / 4e3) * __ms;
    21f2:	6b a1       	ldd	r22, Y+35	; 0x23
    21f4:	7c a1       	ldd	r23, Y+36	; 0x24
    21f6:	8d a1       	ldd	r24, Y+37	; 0x25
    21f8:	9e a1       	ldd	r25, Y+38	; 0x26
    21fa:	20 e0       	ldi	r18, 0x00	; 0
    21fc:	30 e0       	ldi	r19, 0x00	; 0
    21fe:	4a ef       	ldi	r20, 0xFA	; 250
    2200:	54 e4       	ldi	r21, 0x44	; 68
    2202:	0e 94 1f 02 	call	0x43e	; 0x43e <__mulsf3>
    2206:	dc 01       	movw	r26, r24
    2208:	cb 01       	movw	r24, r22
    220a:	8f 8f       	std	Y+31, r24	; 0x1f
    220c:	98 a3       	std	Y+32, r25	; 0x20
    220e:	a9 a3       	std	Y+33, r26	; 0x21
    2210:	ba a3       	std	Y+34, r27	; 0x22
	if (__tmp < 1.0)
    2212:	6f 8d       	ldd	r22, Y+31	; 0x1f
    2214:	78 a1       	ldd	r23, Y+32	; 0x20
    2216:	89 a1       	ldd	r24, Y+33	; 0x21
    2218:	9a a1       	ldd	r25, Y+34	; 0x22
    221a:	20 e0       	ldi	r18, 0x00	; 0
    221c:	30 e0       	ldi	r19, 0x00	; 0
    221e:	40 e8       	ldi	r20, 0x80	; 128
    2220:	5f e3       	ldi	r21, 0x3F	; 63
    2222:	0e 94 25 04 	call	0x84a	; 0x84a <__ltsf2>
    2226:	88 23       	and	r24, r24
    2228:	2c f4       	brge	.+10     	; 0x2234 <LCD_enuWriteChar+0xcc>
		__ticks = 1;
    222a:	81 e0       	ldi	r24, 0x01	; 1
    222c:	90 e0       	ldi	r25, 0x00	; 0
    222e:	9e 8f       	std	Y+30, r25	; 0x1e
    2230:	8d 8f       	std	Y+29, r24	; 0x1d
    2232:	3f c0       	rjmp	.+126    	; 0x22b2 <LCD_enuWriteChar+0x14a>
	else if (__tmp > 65535)
    2234:	6f 8d       	ldd	r22, Y+31	; 0x1f
    2236:	78 a1       	ldd	r23, Y+32	; 0x20
    2238:	89 a1       	ldd	r24, Y+33	; 0x21
    223a:	9a a1       	ldd	r25, Y+34	; 0x22
    223c:	20 e0       	ldi	r18, 0x00	; 0
    223e:	3f ef       	ldi	r19, 0xFF	; 255
    2240:	4f e7       	ldi	r20, 0x7F	; 127
    2242:	57 e4       	ldi	r21, 0x47	; 71
    2244:	0e 94 c5 03 	call	0x78a	; 0x78a <__gtsf2>
    2248:	18 16       	cp	r1, r24
    224a:	4c f5       	brge	.+82     	; 0x229e <LCD_enuWriteChar+0x136>
	{
		//	__ticks = requested delay in 1/10 ms
		__ticks = (uint16_t) (__ms * 10.0);
    224c:	6b a1       	ldd	r22, Y+35	; 0x23
    224e:	7c a1       	ldd	r23, Y+36	; 0x24
    2250:	8d a1       	ldd	r24, Y+37	; 0x25
    2252:	9e a1       	ldd	r25, Y+38	; 0x26
    2254:	20 e0       	ldi	r18, 0x00	; 0
    2256:	30 e0       	ldi	r19, 0x00	; 0
    2258:	40 e2       	ldi	r20, 0x20	; 32
    225a:	51 e4       	ldi	r21, 0x41	; 65
    225c:	0e 94 1f 02 	call	0x43e	; 0x43e <__mulsf3>
    2260:	dc 01       	movw	r26, r24
    2262:	cb 01       	movw	r24, r22
    2264:	bc 01       	movw	r22, r24
    2266:	cd 01       	movw	r24, r26
    2268:	0e 94 49 00 	call	0x92	; 0x92 <__fixunssfsi>
    226c:	dc 01       	movw	r26, r24
    226e:	cb 01       	movw	r24, r22
    2270:	9e 8f       	std	Y+30, r25	; 0x1e
    2272:	8d 8f       	std	Y+29, r24	; 0x1d
    2274:	0f c0       	rjmp	.+30     	; 0x2294 <LCD_enuWriteChar+0x12c>
    2276:	88 ec       	ldi	r24, 0xC8	; 200
    2278:	90 e0       	ldi	r25, 0x00	; 0
    227a:	9c 8f       	std	Y+28, r25	; 0x1c
    227c:	8b 8f       	std	Y+27, r24	; 0x1b
    227e:	8b 8d       	ldd	r24, Y+27	; 0x1b
    2280:	9c 8d       	ldd	r25, Y+28	; 0x1c
    2282:	01 97       	sbiw	r24, 0x01	; 1
    2284:	f1 f7       	brne	.-4      	; 0x2282 <LCD_enuWriteChar+0x11a>
    2286:	9c 8f       	std	Y+28, r25	; 0x1c
    2288:	8b 8f       	std	Y+27, r24	; 0x1b
		while(__ticks)
		{
			// wait 1/10 ms
			_delay_loop_2(((F_CPU) / 4e3) / 10);
			__ticks --;
    228a:	8d 8d       	ldd	r24, Y+29	; 0x1d
    228c:	9e 8d       	ldd	r25, Y+30	; 0x1e
    228e:	01 97       	sbiw	r24, 0x01	; 1
    2290:	9e 8f       	std	Y+30, r25	; 0x1e
    2292:	8d 8f       	std	Y+29, r24	; 0x1d
		__ticks = 1;
	else if (__tmp > 65535)
	{
		//	__ticks = requested delay in 1/10 ms
		__ticks = (uint16_t) (__ms * 10.0);
		while(__ticks)
    2294:	8d 8d       	ldd	r24, Y+29	; 0x1d
    2296:	9e 8d       	ldd	r25, Y+30	; 0x1e
    2298:	00 97       	sbiw	r24, 0x00	; 0
    229a:	69 f7       	brne	.-38     	; 0x2276 <LCD_enuWriteChar+0x10e>
    229c:	14 c0       	rjmp	.+40     	; 0x22c6 <LCD_enuWriteChar+0x15e>
			__ticks --;
		}
		return;
	}
	else
		__ticks = (uint16_t)__tmp;
    229e:	6f 8d       	ldd	r22, Y+31	; 0x1f
    22a0:	78 a1       	ldd	r23, Y+32	; 0x20
    22a2:	89 a1       	ldd	r24, Y+33	; 0x21
    22a4:	9a a1       	ldd	r25, Y+34	; 0x22
    22a6:	0e 94 49 00 	call	0x92	; 0x92 <__fixunssfsi>
    22aa:	dc 01       	movw	r26, r24
    22ac:	cb 01       	movw	r24, r22
    22ae:	9e 8f       	std	Y+30, r25	; 0x1e
    22b0:	8d 8f       	std	Y+29, r24	; 0x1d
    22b2:	8d 8d       	ldd	r24, Y+29	; 0x1d
    22b4:	9e 8d       	ldd	r25, Y+30	; 0x1e
    22b6:	9a 8f       	std	Y+26, r25	; 0x1a
    22b8:	89 8f       	std	Y+25, r24	; 0x19
    22ba:	89 8d       	ldd	r24, Y+25	; 0x19
    22bc:	9a 8d       	ldd	r25, Y+26	; 0x1a
    22be:	01 97       	sbiw	r24, 0x01	; 1
    22c0:	f1 f7       	brne	.-4      	; 0x22be <LCD_enuWriteChar+0x156>
    22c2:	9a 8f       	std	Y+26, r25	; 0x1a
    22c4:	89 8f       	std	Y+25, r24	; 0x19
	_delay_ms(1);
	DIO_enuSetPinValue(LCDNb[u8LCDNmCpy].E,DIO_u8LOW);	/*set E pin LOW */
    22c6:	89 a5       	ldd	r24, Y+41	; 0x29
    22c8:	48 2f       	mov	r20, r24
    22ca:	50 e0       	ldi	r21, 0x00	; 0
    22cc:	ca 01       	movw	r24, r20
    22ce:	88 0f       	add	r24, r24
    22d0:	99 1f       	adc	r25, r25
    22d2:	9c 01       	movw	r18, r24
    22d4:	22 0f       	add	r18, r18
    22d6:	33 1f       	adc	r19, r19
    22d8:	22 0f       	add	r18, r18
    22da:	33 1f       	adc	r19, r19
    22dc:	82 0f       	add	r24, r18
    22de:	93 1f       	adc	r25, r19
    22e0:	84 0f       	add	r24, r20
    22e2:	95 1f       	adc	r25, r21
    22e4:	fc 01       	movw	r30, r24
    22e6:	ee 57       	subi	r30, 0x7E	; 126
    22e8:	ff 4f       	sbci	r31, 0xFF	; 255
    22ea:	80 81       	ld	r24, Z
    22ec:	60 e0       	ldi	r22, 0x00	; 0
    22ee:	0e 94 ca 06 	call	0xd94	; 0xd94 <DIO_enuSetPinValue>
    22f2:	80 e0       	ldi	r24, 0x00	; 0
    22f4:	90 e0       	ldi	r25, 0x00	; 0
    22f6:	a0 e2       	ldi	r26, 0x20	; 32
    22f8:	b2 e4       	ldi	r27, 0x42	; 66
    22fa:	8d 8b       	std	Y+21, r24	; 0x15
    22fc:	9e 8b       	std	Y+22, r25	; 0x16
    22fe:	af 8b       	std	Y+23, r26	; 0x17
    2300:	b8 8f       	std	Y+24, r27	; 0x18
 */
void
_delay_us(double __us)
{
	uint8_t __ticks;
	double __tmp = ((F_CPU) / 3e6) * __us;
    2302:	6d 89       	ldd	r22, Y+21	; 0x15
    2304:	7e 89       	ldd	r23, Y+22	; 0x16
    2306:	8f 89       	ldd	r24, Y+23	; 0x17
    2308:	98 8d       	ldd	r25, Y+24	; 0x18
    230a:	2b ea       	ldi	r18, 0xAB	; 171
    230c:	3a ea       	ldi	r19, 0xAA	; 170
    230e:	4a e2       	ldi	r20, 0x2A	; 42
    2310:	50 e4       	ldi	r21, 0x40	; 64
    2312:	0e 94 1f 02 	call	0x43e	; 0x43e <__mulsf3>
    2316:	dc 01       	movw	r26, r24
    2318:	cb 01       	movw	r24, r22
    231a:	89 8b       	std	Y+17, r24	; 0x11
    231c:	9a 8b       	std	Y+18, r25	; 0x12
    231e:	ab 8b       	std	Y+19, r26	; 0x13
    2320:	bc 8b       	std	Y+20, r27	; 0x14
	if (__tmp < 1.0)
    2322:	69 89       	ldd	r22, Y+17	; 0x11
    2324:	7a 89       	ldd	r23, Y+18	; 0x12
    2326:	8b 89       	ldd	r24, Y+19	; 0x13
    2328:	9c 89       	ldd	r25, Y+20	; 0x14
    232a:	20 e0       	ldi	r18, 0x00	; 0
    232c:	30 e0       	ldi	r19, 0x00	; 0
    232e:	40 e8       	ldi	r20, 0x80	; 128
    2330:	5f e3       	ldi	r21, 0x3F	; 63
    2332:	0e 94 25 04 	call	0x84a	; 0x84a <__ltsf2>
    2336:	88 23       	and	r24, r24
    2338:	1c f4       	brge	.+6      	; 0x2340 <LCD_enuWriteChar+0x1d8>
		__ticks = 1;
    233a:	81 e0       	ldi	r24, 0x01	; 1
    233c:	88 8b       	std	Y+16, r24	; 0x10
    233e:	91 c0       	rjmp	.+290    	; 0x2462 <LCD_enuWriteChar+0x2fa>
	else if (__tmp > 255)
    2340:	69 89       	ldd	r22, Y+17	; 0x11
    2342:	7a 89       	ldd	r23, Y+18	; 0x12
    2344:	8b 89       	ldd	r24, Y+19	; 0x13
    2346:	9c 89       	ldd	r25, Y+20	; 0x14
    2348:	20 e0       	ldi	r18, 0x00	; 0
    234a:	30 e0       	ldi	r19, 0x00	; 0
    234c:	4f e7       	ldi	r20, 0x7F	; 127
    234e:	53 e4       	ldi	r21, 0x43	; 67
    2350:	0e 94 c5 03 	call	0x78a	; 0x78a <__gtsf2>
    2354:	18 16       	cp	r1, r24
    2356:	0c f0       	brlt	.+2      	; 0x235a <LCD_enuWriteChar+0x1f2>
    2358:	7b c0       	rjmp	.+246    	; 0x2450 <LCD_enuWriteChar+0x2e8>
	{
		_delay_ms(__us / 1000.0);
    235a:	6d 89       	ldd	r22, Y+21	; 0x15
    235c:	7e 89       	ldd	r23, Y+22	; 0x16
    235e:	8f 89       	ldd	r24, Y+23	; 0x17
    2360:	98 8d       	ldd	r25, Y+24	; 0x18
    2362:	20 e0       	ldi	r18, 0x00	; 0
    2364:	30 e0       	ldi	r19, 0x00	; 0
    2366:	4a e7       	ldi	r20, 0x7A	; 122
    2368:	54 e4       	ldi	r21, 0x44	; 68
    236a:	0e 94 19 03 	call	0x632	; 0x632 <__divsf3>
    236e:	dc 01       	movw	r26, r24
    2370:	cb 01       	movw	r24, r22
    2372:	8c 87       	std	Y+12, r24	; 0x0c
    2374:	9d 87       	std	Y+13, r25	; 0x0d
    2376:	ae 87       	std	Y+14, r26	; 0x0e
    2378:	bf 87       	std	Y+15, r27	; 0x0f
 */
void
_delay_ms(double __ms)
{
	uint16_t __ticks;
	double __tmp = ((F_CPU) / 4e3) * __ms;
    237a:	6c 85       	ldd	r22, Y+12	; 0x0c
    237c:	7d 85       	ldd	r23, Y+13	; 0x0d
    237e:	8e 85       	ldd	r24, Y+14	; 0x0e
    2380:	9f 85       	ldd	r25, Y+15	; 0x0f
    2382:	20 e0       	ldi	r18, 0x00	; 0
    2384:	30 e0       	ldi	r19, 0x00	; 0
    2386:	4a ef       	ldi	r20, 0xFA	; 250
    2388:	54 e4       	ldi	r21, 0x44	; 68
    238a:	0e 94 1f 02 	call	0x43e	; 0x43e <__mulsf3>
    238e:	dc 01       	movw	r26, r24
    2390:	cb 01       	movw	r24, r22
    2392:	88 87       	std	Y+8, r24	; 0x08
    2394:	99 87       	std	Y+9, r25	; 0x09
    2396:	aa 87       	std	Y+10, r26	; 0x0a
    2398:	bb 87       	std	Y+11, r27	; 0x0b
	if (__tmp < 1.0)
    239a:	68 85       	ldd	r22, Y+8	; 0x08
    239c:	79 85       	ldd	r23, Y+9	; 0x09
    239e:	8a 85       	ldd	r24, Y+10	; 0x0a
    23a0:	9b 85       	ldd	r25, Y+11	; 0x0b
    23a2:	20 e0       	ldi	r18, 0x00	; 0
    23a4:	30 e0       	ldi	r19, 0x00	; 0
    23a6:	40 e8       	ldi	r20, 0x80	; 128
    23a8:	5f e3       	ldi	r21, 0x3F	; 63
    23aa:	0e 94 25 04 	call	0x84a	; 0x84a <__ltsf2>
    23ae:	88 23       	and	r24, r24
    23b0:	2c f4       	brge	.+10     	; 0x23bc <LCD_enuWriteChar+0x254>
		__ticks = 1;
    23b2:	81 e0       	ldi	r24, 0x01	; 1
    23b4:	90 e0       	ldi	r25, 0x00	; 0
    23b6:	9f 83       	std	Y+7, r25	; 0x07
    23b8:	8e 83       	std	Y+6, r24	; 0x06
    23ba:	3f c0       	rjmp	.+126    	; 0x243a <LCD_enuWriteChar+0x2d2>
	else if (__tmp > 65535)
    23bc:	68 85       	ldd	r22, Y+8	; 0x08
    23be:	79 85       	ldd	r23, Y+9	; 0x09
    23c0:	8a 85       	ldd	r24, Y+10	; 0x0a
    23c2:	9b 85       	ldd	r25, Y+11	; 0x0b
    23c4:	20 e0       	ldi	r18, 0x00	; 0
    23c6:	3f ef       	ldi	r19, 0xFF	; 255
    23c8:	4f e7       	ldi	r20, 0x7F	; 127
    23ca:	57 e4       	ldi	r21, 0x47	; 71
    23cc:	0e 94 c5 03 	call	0x78a	; 0x78a <__gtsf2>
    23d0:	18 16       	cp	r1, r24
    23d2:	4c f5       	brge	.+82     	; 0x2426 <LCD_enuWriteChar+0x2be>
	{
		//	__ticks = requested delay in 1/10 ms
		__ticks = (uint16_t) (__ms * 10.0);
    23d4:	6c 85       	ldd	r22, Y+12	; 0x0c
    23d6:	7d 85       	ldd	r23, Y+13	; 0x0d
    23d8:	8e 85       	ldd	r24, Y+14	; 0x0e
    23da:	9f 85       	ldd	r25, Y+15	; 0x0f
    23dc:	20 e0       	ldi	r18, 0x00	; 0
    23de:	30 e0       	ldi	r19, 0x00	; 0
    23e0:	40 e2       	ldi	r20, 0x20	; 32
    23e2:	51 e4       	ldi	r21, 0x41	; 65
    23e4:	0e 94 1f 02 	call	0x43e	; 0x43e <__mulsf3>
    23e8:	dc 01       	movw	r26, r24
    23ea:	cb 01       	movw	r24, r22
    23ec:	bc 01       	movw	r22, r24
    23ee:	cd 01       	movw	r24, r26
    23f0:	0e 94 49 00 	call	0x92	; 0x92 <__fixunssfsi>
    23f4:	dc 01       	movw	r26, r24
    23f6:	cb 01       	movw	r24, r22
    23f8:	9f 83       	std	Y+7, r25	; 0x07
    23fa:	8e 83       	std	Y+6, r24	; 0x06
    23fc:	0f c0       	rjmp	.+30     	; 0x241c <LCD_enuWriteChar+0x2b4>
    23fe:	88 ec       	ldi	r24, 0xC8	; 200
    2400:	90 e0       	ldi	r25, 0x00	; 0
    2402:	9d 83       	std	Y+5, r25	; 0x05
    2404:	8c 83       	std	Y+4, r24	; 0x04
    2406:	8c 81       	ldd	r24, Y+4	; 0x04
    2408:	9d 81       	ldd	r25, Y+5	; 0x05
    240a:	01 97       	sbiw	r24, 0x01	; 1
    240c:	f1 f7       	brne	.-4      	; 0x240a <LCD_enuWriteChar+0x2a2>
    240e:	9d 83       	std	Y+5, r25	; 0x05
    2410:	8c 83       	std	Y+4, r24	; 0x04
		while(__ticks)
		{
			// wait 1/10 ms
			_delay_loop_2(((F_CPU) / 4e3) / 10);
			__ticks --;
    2412:	8e 81       	ldd	r24, Y+6	; 0x06
    2414:	9f 81       	ldd	r25, Y+7	; 0x07
    2416:	01 97       	sbiw	r24, 0x01	; 1
    2418:	9f 83       	std	Y+7, r25	; 0x07
    241a:	8e 83       	std	Y+6, r24	; 0x06
		__ticks = 1;
	else if (__tmp > 65535)
	{
		//	__ticks = requested delay in 1/10 ms
		__ticks = (uint16_t) (__ms * 10.0);
		while(__ticks)
    241c:	8e 81       	ldd	r24, Y+6	; 0x06
    241e:	9f 81       	ldd	r25, Y+7	; 0x07
    2420:	00 97       	sbiw	r24, 0x00	; 0
    2422:	69 f7       	brne	.-38     	; 0x23fe <LCD_enuWriteChar+0x296>
    2424:	24 c0       	rjmp	.+72     	; 0x246e <LCD_enuWriteChar+0x306>
			__ticks --;
		}
		return;
	}
	else
		__ticks = (uint16_t)__tmp;
    2426:	68 85       	ldd	r22, Y+8	; 0x08
    2428:	79 85       	ldd	r23, Y+9	; 0x09
    242a:	8a 85       	ldd	r24, Y+10	; 0x0a
    242c:	9b 85       	ldd	r25, Y+11	; 0x0b
    242e:	0e 94 49 00 	call	0x92	; 0x92 <__fixunssfsi>
    2432:	dc 01       	movw	r26, r24
    2434:	cb 01       	movw	r24, r22
    2436:	9f 83       	std	Y+7, r25	; 0x07
    2438:	8e 83       	std	Y+6, r24	; 0x06
    243a:	8e 81       	ldd	r24, Y+6	; 0x06
    243c:	9f 81       	ldd	r25, Y+7	; 0x07
    243e:	9b 83       	std	Y+3, r25	; 0x03
    2440:	8a 83       	std	Y+2, r24	; 0x02
    2442:	8a 81       	ldd	r24, Y+2	; 0x02
    2444:	9b 81       	ldd	r25, Y+3	; 0x03
    2446:	01 97       	sbiw	r24, 0x01	; 1
    2448:	f1 f7       	brne	.-4      	; 0x2446 <LCD_enuWriteChar+0x2de>
    244a:	9b 83       	std	Y+3, r25	; 0x03
    244c:	8a 83       	std	Y+2, r24	; 0x02
    244e:	0f c0       	rjmp	.+30     	; 0x246e <LCD_enuWriteChar+0x306>
	{
		_delay_ms(__us / 1000.0);
		return;
	}
	else
		__ticks = (uint8_t)__tmp;
    2450:	69 89       	ldd	r22, Y+17	; 0x11
    2452:	7a 89       	ldd	r23, Y+18	; 0x12
    2454:	8b 89       	ldd	r24, Y+19	; 0x13
    2456:	9c 89       	ldd	r25, Y+20	; 0x14
    2458:	0e 94 49 00 	call	0x92	; 0x92 <__fixunssfsi>
    245c:	dc 01       	movw	r26, r24
    245e:	cb 01       	movw	r24, r22
    2460:	88 8b       	std	Y+16, r24	; 0x10
    2462:	88 89       	ldd	r24, Y+16	; 0x10
    2464:	89 83       	std	Y+1, r24	; 0x01
    can be achieved.
*/
void
_delay_loop_1(uint8_t __count)
{
	__asm__ volatile (
    2466:	89 81       	ldd	r24, Y+1	; 0x01
    2468:	8a 95       	dec	r24
    246a:	f1 f7       	brne	.-4      	; 0x2468 <LCD_enuWriteChar+0x300>
    246c:	89 83       	std	Y+1, r24	; 0x01
	_delay_us(40);
	return status;
    246e:	8f a1       	ldd	r24, Y+39	; 0x27
}
    2470:	a9 96       	adiw	r28, 0x29	; 41
    2472:	0f b6       	in	r0, 0x3f	; 63
    2474:	f8 94       	cli
    2476:	de bf       	out	0x3e, r29	; 62
    2478:	0f be       	out	0x3f, r0	; 63
    247a:	cd bf       	out	0x3d, r28	; 61
    247c:	cf 91       	pop	r28
    247e:	df 91       	pop	r29
    2480:	08 95       	ret

00002482 <vidPutData>:


void vidPutData(u8 u8DataCmdCpy,u8 u8LCDNmCpy)
{
    2482:	df 93       	push	r29
    2484:	cf 93       	push	r28
    2486:	00 d0       	rcall	.+0      	; 0x2488 <vidPutData+0x6>
    2488:	0f 92       	push	r0
    248a:	cd b7       	in	r28, 0x3d	; 61
    248c:	de b7       	in	r29, 0x3e	; 62
    248e:	8a 83       	std	Y+2, r24	; 0x02
    2490:	6b 83       	std	Y+3, r22	; 0x03
	DIO_enuSetPinValue(LCDNb[u8LCDNmCpy].RW,DIO_u8LOW);	/*RW=0*/
    2492:	8b 81       	ldd	r24, Y+3	; 0x03
    2494:	48 2f       	mov	r20, r24
    2496:	50 e0       	ldi	r21, 0x00	; 0
    2498:	ca 01       	movw	r24, r20
    249a:	88 0f       	add	r24, r24
    249c:	99 1f       	adc	r25, r25
    249e:	9c 01       	movw	r18, r24
    24a0:	22 0f       	add	r18, r18
    24a2:	33 1f       	adc	r19, r19
    24a4:	22 0f       	add	r18, r18
    24a6:	33 1f       	adc	r19, r19
    24a8:	82 0f       	add	r24, r18
    24aa:	93 1f       	adc	r25, r19
    24ac:	84 0f       	add	r24, r20
    24ae:	95 1f       	adc	r25, r21
    24b0:	fc 01       	movw	r30, r24
    24b2:	ef 57       	subi	r30, 0x7F	; 127
    24b4:	ff 4f       	sbci	r31, 0xFF	; 255
    24b6:	80 81       	ld	r24, Z
    24b8:	60 e0       	ldi	r22, 0x00	; 0
    24ba:	0e 94 ca 06 	call	0xd94	; 0xd94 <DIO_enuSetPinValue>

	u8 Loc_u8DataIteration=0;
    24be:	19 82       	std	Y+1, r1	; 0x01

		for(Loc_u8DataIteration=0;Loc_u8DataIteration<8;Loc_u8DataIteration++)
    24c0:	19 82       	std	Y+1, r1	; 0x01
    24c2:	4b c0       	rjmp	.+150    	; 0x255a <vidPutData+0xd8>
		{
			if(GET_BIT(u8DataCmdCpy,Loc_u8DataIteration))
    24c4:	8a 81       	ldd	r24, Y+2	; 0x02
    24c6:	28 2f       	mov	r18, r24
    24c8:	30 e0       	ldi	r19, 0x00	; 0
    24ca:	89 81       	ldd	r24, Y+1	; 0x01
    24cc:	88 2f       	mov	r24, r24
    24ce:	90 e0       	ldi	r25, 0x00	; 0
    24d0:	a9 01       	movw	r20, r18
    24d2:	02 c0       	rjmp	.+4      	; 0x24d8 <vidPutData+0x56>
    24d4:	55 95       	asr	r21
    24d6:	47 95       	ror	r20
    24d8:	8a 95       	dec	r24
    24da:	e2 f7       	brpl	.-8      	; 0x24d4 <vidPutData+0x52>
    24dc:	ca 01       	movw	r24, r20
    24de:	81 70       	andi	r24, 0x01	; 1
    24e0:	90 70       	andi	r25, 0x00	; 0
    24e2:	88 23       	and	r24, r24
    24e4:	e1 f0       	breq	.+56     	; 0x251e <vidPutData+0x9c>
			{

				DIO_enuSetPinValue(LCDNb[u8LCDNmCpy].Data[Loc_u8DataIteration],
    24e6:	8b 81       	ldd	r24, Y+3	; 0x03
    24e8:	48 2f       	mov	r20, r24
    24ea:	50 e0       	ldi	r21, 0x00	; 0
    24ec:	89 81       	ldd	r24, Y+1	; 0x01
    24ee:	68 2f       	mov	r22, r24
    24f0:	70 e0       	ldi	r23, 0x00	; 0
    24f2:	ca 01       	movw	r24, r20
    24f4:	88 0f       	add	r24, r24
    24f6:	99 1f       	adc	r25, r25
    24f8:	9c 01       	movw	r18, r24
    24fa:	22 0f       	add	r18, r18
    24fc:	33 1f       	adc	r19, r19
    24fe:	22 0f       	add	r18, r18
    2500:	33 1f       	adc	r19, r19
    2502:	82 0f       	add	r24, r18
    2504:	93 1f       	adc	r25, r19
    2506:	84 0f       	add	r24, r20
    2508:	95 1f       	adc	r25, r21
    250a:	86 0f       	add	r24, r22
    250c:	97 1f       	adc	r25, r23
    250e:	fc 01       	movw	r30, r24
    2510:	ed 57       	subi	r30, 0x7D	; 125
    2512:	ff 4f       	sbci	r31, 0xFF	; 255
    2514:	80 81       	ld	r24, Z
    2516:	61 e0       	ldi	r22, 0x01	; 1
    2518:	0e 94 ca 06 	call	0xd94	; 0xd94 <DIO_enuSetPinValue>
    251c:	1b c0       	rjmp	.+54     	; 0x2554 <vidPutData+0xd2>
									DIO_u8HIGH);
			}
			else
			{

				DIO_enuSetPinValue(LCDNb[u8LCDNmCpy].Data[Loc_u8DataIteration],
    251e:	8b 81       	ldd	r24, Y+3	; 0x03
    2520:	48 2f       	mov	r20, r24
    2522:	50 e0       	ldi	r21, 0x00	; 0
    2524:	89 81       	ldd	r24, Y+1	; 0x01
    2526:	68 2f       	mov	r22, r24
    2528:	70 e0       	ldi	r23, 0x00	; 0
    252a:	ca 01       	movw	r24, r20
    252c:	88 0f       	add	r24, r24
    252e:	99 1f       	adc	r25, r25
    2530:	9c 01       	movw	r18, r24
    2532:	22 0f       	add	r18, r18
    2534:	33 1f       	adc	r19, r19
    2536:	22 0f       	add	r18, r18
    2538:	33 1f       	adc	r19, r19
    253a:	82 0f       	add	r24, r18
    253c:	93 1f       	adc	r25, r19
    253e:	84 0f       	add	r24, r20
    2540:	95 1f       	adc	r25, r21
    2542:	86 0f       	add	r24, r22
    2544:	97 1f       	adc	r25, r23
    2546:	fc 01       	movw	r30, r24
    2548:	ed 57       	subi	r30, 0x7D	; 125
    254a:	ff 4f       	sbci	r31, 0xFF	; 255
    254c:	80 81       	ld	r24, Z
    254e:	60 e0       	ldi	r22, 0x00	; 0
    2550:	0e 94 ca 06 	call	0xd94	; 0xd94 <DIO_enuSetPinValue>
{
	DIO_enuSetPinValue(LCDNb[u8LCDNmCpy].RW,DIO_u8LOW);	/*RW=0*/

	u8 Loc_u8DataIteration=0;

		for(Loc_u8DataIteration=0;Loc_u8DataIteration<8;Loc_u8DataIteration++)
    2554:	89 81       	ldd	r24, Y+1	; 0x01
    2556:	8f 5f       	subi	r24, 0xFF	; 255
    2558:	89 83       	std	Y+1, r24	; 0x01
    255a:	89 81       	ldd	r24, Y+1	; 0x01
    255c:	88 30       	cpi	r24, 0x08	; 8
    255e:	08 f4       	brcc	.+2      	; 0x2562 <vidPutData+0xe0>
    2560:	b1 cf       	rjmp	.-158    	; 0x24c4 <vidPutData+0x42>

				DIO_enuSetPinValue(LCDNb[u8LCDNmCpy].Data[Loc_u8DataIteration],
									DIO_u8LOW);
			}
		}
}
    2562:	0f 90       	pop	r0
    2564:	0f 90       	pop	r0
    2566:	0f 90       	pop	r0
    2568:	cf 91       	pop	r28
    256a:	df 91       	pop	r29
    256c:	08 95       	ret

0000256e <LCD_enuWriteString>:

Error_Status LCD_enuWriteString(u8* pu8StrCpy,u8 u8LCDNmCpy)
{	Error_Status status = OK;
    256e:	df 93       	push	r29
    2570:	cf 93       	push	r28
    2572:	00 d0       	rcall	.+0      	; 0x2574 <LCD_enuWriteString+0x6>
    2574:	00 d0       	rcall	.+0      	; 0x2576 <LCD_enuWriteString+0x8>
    2576:	0f 92       	push	r0
    2578:	cd b7       	in	r28, 0x3d	; 61
    257a:	de b7       	in	r29, 0x3e	; 62
    257c:	9c 83       	std	Y+4, r25	; 0x04
    257e:	8b 83       	std	Y+3, r24	; 0x03
    2580:	6d 83       	std	Y+5, r22	; 0x05
    2582:	1a 82       	std	Y+2, r1	; 0x02
	u8 Loc_u8Iteration =0;
    2584:	19 82       	std	Y+1, r1	; 0x01
    2586:	0f c0       	rjmp	.+30     	; 0x25a6 <LCD_enuWriteString+0x38>
	while(pu8StrCpy[Loc_u8Iteration])
	{
		LCD_enuWriteChar(pu8StrCpy[Loc_u8Iteration],u8LCDNmCpy);
    2588:	89 81       	ldd	r24, Y+1	; 0x01
    258a:	28 2f       	mov	r18, r24
    258c:	30 e0       	ldi	r19, 0x00	; 0
    258e:	8b 81       	ldd	r24, Y+3	; 0x03
    2590:	9c 81       	ldd	r25, Y+4	; 0x04
    2592:	fc 01       	movw	r30, r24
    2594:	e2 0f       	add	r30, r18
    2596:	f3 1f       	adc	r31, r19
    2598:	80 81       	ld	r24, Z
    259a:	6d 81       	ldd	r22, Y+5	; 0x05
    259c:	0e 94 b4 10 	call	0x2168	; 0x2168 <LCD_enuWriteChar>
		Loc_u8Iteration++;
    25a0:	89 81       	ldd	r24, Y+1	; 0x01
    25a2:	8f 5f       	subi	r24, 0xFF	; 255
    25a4:	89 83       	std	Y+1, r24	; 0x01
}

Error_Status LCD_enuWriteString(u8* pu8StrCpy,u8 u8LCDNmCpy)
{	Error_Status status = OK;
	u8 Loc_u8Iteration =0;
	while(pu8StrCpy[Loc_u8Iteration])
    25a6:	89 81       	ldd	r24, Y+1	; 0x01
    25a8:	28 2f       	mov	r18, r24
    25aa:	30 e0       	ldi	r19, 0x00	; 0
    25ac:	8b 81       	ldd	r24, Y+3	; 0x03
    25ae:	9c 81       	ldd	r25, Y+4	; 0x04
    25b0:	fc 01       	movw	r30, r24
    25b2:	e2 0f       	add	r30, r18
    25b4:	f3 1f       	adc	r31, r19
    25b6:	80 81       	ld	r24, Z
    25b8:	88 23       	and	r24, r24
    25ba:	31 f7       	brne	.-52     	; 0x2588 <LCD_enuWriteString+0x1a>
	{
		LCD_enuWriteChar(pu8StrCpy[Loc_u8Iteration],u8LCDNmCpy);
		Loc_u8Iteration++;
	}
	return status;
    25bc:	8a 81       	ldd	r24, Y+2	; 0x02
}
    25be:	0f 90       	pop	r0
    25c0:	0f 90       	pop	r0
    25c2:	0f 90       	pop	r0
    25c4:	0f 90       	pop	r0
    25c6:	0f 90       	pop	r0
    25c8:	cf 91       	pop	r28
    25ca:	df 91       	pop	r29
    25cc:	08 95       	ret

000025ce <LCD_enuGoToXY>:

Error_Status LCD_enuGoToXY(u8 u8XCpy,u8 u8YCpy,u8 u8LCDNmCpy)
{
    25ce:	df 93       	push	r29
    25d0:	cf 93       	push	r28
    25d2:	00 d0       	rcall	.+0      	; 0x25d4 <LCD_enuGoToXY+0x6>
    25d4:	00 d0       	rcall	.+0      	; 0x25d6 <LCD_enuGoToXY+0x8>
    25d6:	cd b7       	in	r28, 0x3d	; 61
    25d8:	de b7       	in	r29, 0x3e	; 62
    25da:	8a 83       	std	Y+2, r24	; 0x02
    25dc:	6b 83       	std	Y+3, r22	; 0x03
    25de:	4c 83       	std	Y+4, r20	; 0x04
	Error_Status status = OK;
    25e0:	19 82       	std	Y+1, r1	; 0x01
	(u8YCpy==0)?LCD_enuSendCmd(0x80+u8XCpy,u8LCDNmCpy) : LCD_enuSendCmd(0xc0+u8XCpy,u8LCDNmCpy)	;
    25e2:	8b 81       	ldd	r24, Y+3	; 0x03
    25e4:	88 23       	and	r24, r24
    25e6:	31 f4       	brne	.+12     	; 0x25f4 <LCD_enuGoToXY+0x26>
    25e8:	8a 81       	ldd	r24, Y+2	; 0x02
    25ea:	80 58       	subi	r24, 0x80	; 128
    25ec:	6c 81       	ldd	r22, Y+4	; 0x04
    25ee:	0e 94 e5 0f 	call	0x1fca	; 0x1fca <LCD_enuSendCmd>
    25f2:	05 c0       	rjmp	.+10     	; 0x25fe <LCD_enuGoToXY+0x30>
    25f4:	8a 81       	ldd	r24, Y+2	; 0x02
    25f6:	80 54       	subi	r24, 0x40	; 64
    25f8:	6c 81       	ldd	r22, Y+4	; 0x04
    25fa:	0e 94 e5 0f 	call	0x1fca	; 0x1fca <LCD_enuSendCmd>
	return status;
    25fe:	89 81       	ldd	r24, Y+1	; 0x01
}
    2600:	0f 90       	pop	r0
    2602:	0f 90       	pop	r0
    2604:	0f 90       	pop	r0
    2606:	0f 90       	pop	r0
    2608:	cf 91       	pop	r28
    260a:	df 91       	pop	r29
    260c:	08 95       	ret

0000260e <main>:

#include "LCD_int.h"


int main()
{
    260e:	df 93       	push	r29
    2610:	cf 93       	push	r28
    2612:	00 d0       	rcall	.+0      	; 0x2614 <main+0x6>
    2614:	00 d0       	rcall	.+0      	; 0x2616 <main+0x8>
    2616:	0f 92       	push	r0
    2618:	cd b7       	in	r28, 0x3d	; 61
    261a:	de b7       	in	r29, 0x3e	; 62
	ADC_vidInit();
    261c:	0e 94 4f 06 	call	0xc9e	; 0xc9e <ADC_vidInit>
	LCD_enuSetLCD();
    2620:	0e 94 5c 0c 	call	0x18b8	; 0x18b8 <LCD_enuSetLCD>
	LCD_enuInit(1);
    2624:	81 e0       	ldi	r24, 0x01	; 1
    2626:	0e 94 6d 0c 	call	0x18da	; 0x18da <LCD_enuInit>
/*	LCD_enuWriteString("Temperature = ",0);*/
	DIO_enuSetPinDirection(DIO_u8PIN_7,DIO_u8OUTPUT);
    262a:	87 e0       	ldi	r24, 0x07	; 7
    262c:	61 e0       	ldi	r22, 0x01	; 1
    262e:	0e 94 29 08 	call	0x1052	; 0x1052 <DIO_enuSetPinDirection>
	DIO_enuSetPinValue(DIO_u8PIN_7,DIO_u8HIGH);
    2632:	87 e0       	ldi	r24, 0x07	; 7
    2634:	61 e0       	ldi	r22, 0x01	; 1
    2636:	0e 94 ca 06 	call	0xd94	; 0xd94 <DIO_enuSetPinValue>
	while(1)
	{

		u8 Loc_u8DigitalValue = (ADC_u8Read(0)>>8);
    263a:	80 e0       	ldi	r24, 0x00	; 0
    263c:	0e 94 79 06 	call	0xcf2	; 0xcf2 <ADC_u8Read>
    2640:	89 2f       	mov	r24, r25
    2642:	99 27       	eor	r25, r25
    2644:	8b 83       	std	Y+3, r24	; 0x03
		LCD_enuGoToXY(0,14,0);
    2646:	80 e0       	ldi	r24, 0x00	; 0
    2648:	6e e0       	ldi	r22, 0x0E	; 14
    264a:	40 e0       	ldi	r20, 0x00	; 0
    264c:	0e 94 e7 12 	call	0x25ce	; 0x25ce <LCD_enuGoToXY>
		u16 Loc_u8AnalogValue = (Loc_u8DigitalValue * 5000)/256 ;
    2650:	8b 81       	ldd	r24, Y+3	; 0x03
    2652:	28 2f       	mov	r18, r24
    2654:	30 e0       	ldi	r19, 0x00	; 0
    2656:	88 e8       	ldi	r24, 0x88	; 136
    2658:	93 e1       	ldi	r25, 0x13	; 19
    265a:	ac 01       	movw	r20, r24
    265c:	24 9f       	mul	r18, r20
    265e:	c0 01       	movw	r24, r0
    2660:	25 9f       	mul	r18, r21
    2662:	90 0d       	add	r25, r0
    2664:	34 9f       	mul	r19, r20
    2666:	90 0d       	add	r25, r0
    2668:	11 24       	eor	r1, r1
    266a:	9d 83       	std	Y+5, r25	; 0x05
    266c:	8c 83       	std	Y+4, r24	; 0x04
    266e:	8c 81       	ldd	r24, Y+4	; 0x04
    2670:	9d 81       	ldd	r25, Y+5	; 0x05
    2672:	99 23       	and	r25, r25
    2674:	34 f4       	brge	.+12     	; 0x2682 <main+0x74>
    2676:	2c 81       	ldd	r18, Y+4	; 0x04
    2678:	3d 81       	ldd	r19, Y+5	; 0x05
    267a:	21 50       	subi	r18, 0x01	; 1
    267c:	3f 4f       	sbci	r19, 0xFF	; 255
    267e:	3d 83       	std	Y+5, r19	; 0x05
    2680:	2c 83       	std	Y+4, r18	; 0x04
    2682:	4c 81       	ldd	r20, Y+4	; 0x04
    2684:	5d 81       	ldd	r21, Y+5	; 0x05
    2686:	85 2f       	mov	r24, r21
    2688:	99 27       	eor	r25, r25
    268a:	87 fd       	sbrc	r24, 7
    268c:	9a 95       	dec	r25
    268e:	9a 83       	std	Y+2, r25	; 0x02
    2690:	89 83       	std	Y+1, r24	; 0x01
		DIO_enuSetPortX(Loc_u8AnalogValue);
    2692:	89 81       	ldd	r24, Y+1	; 0x01
    2694:	0e 94 da 09 	call	0x13b4	; 0x13b4 <DIO_enuSetPortX>
    2698:	d0 cf       	rjmp	.-96     	; 0x263a <main+0x2c>

0000269a <__prologue_saves__>:
    269a:	2f 92       	push	r2
    269c:	3f 92       	push	r3
    269e:	4f 92       	push	r4
    26a0:	5f 92       	push	r5
    26a2:	6f 92       	push	r6
    26a4:	7f 92       	push	r7
    26a6:	8f 92       	push	r8
    26a8:	9f 92       	push	r9
    26aa:	af 92       	push	r10
    26ac:	bf 92       	push	r11
    26ae:	cf 92       	push	r12
    26b0:	df 92       	push	r13
    26b2:	ef 92       	push	r14
    26b4:	ff 92       	push	r15
    26b6:	0f 93       	push	r16
    26b8:	1f 93       	push	r17
    26ba:	cf 93       	push	r28
    26bc:	df 93       	push	r29
    26be:	cd b7       	in	r28, 0x3d	; 61
    26c0:	de b7       	in	r29, 0x3e	; 62
    26c2:	ca 1b       	sub	r28, r26
    26c4:	db 0b       	sbc	r29, r27
    26c6:	0f b6       	in	r0, 0x3f	; 63
    26c8:	f8 94       	cli
    26ca:	de bf       	out	0x3e, r29	; 62
    26cc:	0f be       	out	0x3f, r0	; 63
    26ce:	cd bf       	out	0x3d, r28	; 61
    26d0:	09 94       	ijmp

000026d2 <__epilogue_restores__>:
    26d2:	2a 88       	ldd	r2, Y+18	; 0x12
    26d4:	39 88       	ldd	r3, Y+17	; 0x11
    26d6:	48 88       	ldd	r4, Y+16	; 0x10
    26d8:	5f 84       	ldd	r5, Y+15	; 0x0f
    26da:	6e 84       	ldd	r6, Y+14	; 0x0e
    26dc:	7d 84       	ldd	r7, Y+13	; 0x0d
    26de:	8c 84       	ldd	r8, Y+12	; 0x0c
    26e0:	9b 84       	ldd	r9, Y+11	; 0x0b
    26e2:	aa 84       	ldd	r10, Y+10	; 0x0a
    26e4:	b9 84       	ldd	r11, Y+9	; 0x09
    26e6:	c8 84       	ldd	r12, Y+8	; 0x08
    26e8:	df 80       	ldd	r13, Y+7	; 0x07
    26ea:	ee 80       	ldd	r14, Y+6	; 0x06
    26ec:	fd 80       	ldd	r15, Y+5	; 0x05
    26ee:	0c 81       	ldd	r16, Y+4	; 0x04
    26f0:	1b 81       	ldd	r17, Y+3	; 0x03
    26f2:	aa 81       	ldd	r26, Y+2	; 0x02
    26f4:	b9 81       	ldd	r27, Y+1	; 0x01
    26f6:	ce 0f       	add	r28, r30
    26f8:	d1 1d       	adc	r29, r1
    26fa:	0f b6       	in	r0, 0x3f	; 63
    26fc:	f8 94       	cli
    26fe:	de bf       	out	0x3e, r29	; 62
    2700:	0f be       	out	0x3f, r0	; 63
    2702:	cd bf       	out	0x3d, r28	; 61
    2704:	ed 01       	movw	r28, r26
    2706:	08 95       	ret

00002708 <_exit>:
    2708:	f8 94       	cli

0000270a <__stop_program>:
    270a:	ff cf       	rjmp	.-2      	; 0x270a <__stop_program>
